; ModuleID = 'D:/School/Project/repo/HLS/sliding_window_2/solution1/.autopilot/db/a.o.3.bc'
target datalayout = "e-p:32:32:32-i1:8:8-i8:8:8-i16:16:16-i32:32:32-i64:64:64-f32:32:32-f64:64:64-f80:128:128-v64:64:64-v128:128:128-a0:0:64-f80:32:32-n8:16:32-S32"
target triple = "i686-pc-mingw32"

@my_filter_buffer_str = internal unnamed_addr constant [17 x i8] c"my_filter_buffer\00" ; [#uses=1 type=[17 x i8]*]
@llvm_global_ctors_1 = appending global [1 x void ()*] [void ()* @_GLOBAL__I_a] ; [#uses=0 type=[1 x void ()*]*]
@llvm_global_ctors_0 = appending global [1 x i32] [i32 65535] ; [#uses=0 type=[1 x i32]*]
@p_str9 = private unnamed_addr constant [12 x i8] c"hls_label_2\00", align 1 ; [#uses=2 type=[12 x i8]*]
@p_str8 = private unnamed_addr constant [12 x i8] c"hls_label_0\00", align 1 ; [#uses=2 type=[12 x i8]*]
@p_str7 = private unnamed_addr constant [12 x i8] c"hls_label_3\00", align 1 ; [#uses=2 type=[12 x i8]*]
@p_str5 = private unnamed_addr constant [5 x i8] c"CTRL\00", align 1 ; [#uses=1 type=[5 x i8]*]
@p_str4 = private unnamed_addr constant [11 x i8] c"KERNEL_BUS\00", align 1 ; [#uses=1 type=[11 x i8]*]
@p_str3 = private unnamed_addr constant [10 x i8] c"s_axilite\00", align 1 ; [#uses=2 type=[10 x i8]*]
@p_str2 = private unnamed_addr constant [1 x i8] zeroinitializer, align 1 ; [#uses=24 type=[1 x i8]*]
@p_str10 = private unnamed_addr constant [12 x i8] c"hls_label_1\00", align 1 ; [#uses=2 type=[12 x i8]*]
@p_str1 = private unnamed_addr constant [5 x i8] c"both\00", align 1 ; [#uses=2 type=[5 x i8]*]
@p_str = private unnamed_addr constant [5 x i8] c"axis\00", align 1 ; [#uses=2 type=[5 x i8]*]

; [#uses=0]
define void @my_filter_buffer(i32* %in_stream_V_data_V, i4* %in_stream_V_keep_V, i4* %in_stream_V_strb_V, i2* %in_stream_V_user_V, i1* %in_stream_V_last_V, i5* %in_stream_V_id_V, i6* %in_stream_V_dest_V, i32* %out_stream_V_data_V, i4* %out_stream_V_keep_V, i4* %out_stream_V_strb_V, i2* %out_stream_V_user_V, i1* %out_stream_V_last_V, i5* %out_stream_V_id_V, i6* %out_stream_V_dest_V, i8* %kernel_0, i8* %kernel_1, i8* %kernel_2, i8* %kernel_3, i8* %kernel_4, i8* %kernel_5, i8* %kernel_6, i8* %kernel_7, i8* %kernel_8) {
  call void (...)* @_ssdm_op_SpecBitsMap(i8* %kernel_8), !map !52
  call void (...)* @_ssdm_op_SpecBitsMap(i8* %kernel_7), !map !58
  call void (...)* @_ssdm_op_SpecBitsMap(i8* %kernel_6), !map !64
  call void (...)* @_ssdm_op_SpecBitsMap(i8* %kernel_5), !map !70
  call void (...)* @_ssdm_op_SpecBitsMap(i8* %kernel_4), !map !76
  call void (...)* @_ssdm_op_SpecBitsMap(i8* %kernel_3), !map !82
  call void (...)* @_ssdm_op_SpecBitsMap(i8* %kernel_2), !map !88
  call void (...)* @_ssdm_op_SpecBitsMap(i8* %kernel_1), !map !94
  call void (...)* @_ssdm_op_SpecBitsMap(i8* %kernel_0), !map !100
  call void (...)* @_ssdm_op_SpecBitsMap(i32* %in_stream_V_data_V), !map !106
  call void (...)* @_ssdm_op_SpecBitsMap(i4* %in_stream_V_keep_V), !map !110
  call void (...)* @_ssdm_op_SpecBitsMap(i4* %in_stream_V_strb_V), !map !114
  call void (...)* @_ssdm_op_SpecBitsMap(i2* %in_stream_V_user_V), !map !118
  call void (...)* @_ssdm_op_SpecBitsMap(i1* %in_stream_V_last_V), !map !122
  call void (...)* @_ssdm_op_SpecBitsMap(i5* %in_stream_V_id_V), !map !126
  call void (...)* @_ssdm_op_SpecBitsMap(i6* %in_stream_V_dest_V), !map !130
  call void (...)* @_ssdm_op_SpecBitsMap(i32* %out_stream_V_data_V), !map !134
  call void (...)* @_ssdm_op_SpecBitsMap(i4* %out_stream_V_keep_V), !map !138
  call void (...)* @_ssdm_op_SpecBitsMap(i4* %out_stream_V_strb_V), !map !142
  call void (...)* @_ssdm_op_SpecBitsMap(i2* %out_stream_V_user_V), !map !146
  call void (...)* @_ssdm_op_SpecBitsMap(i1* %out_stream_V_last_V), !map !150
  call void (...)* @_ssdm_op_SpecBitsMap(i5* %out_stream_V_id_V), !map !154
  call void (...)* @_ssdm_op_SpecBitsMap(i6* %out_stream_V_dest_V), !map !158
  call void (...)* @_ssdm_op_SpecTopModule([17 x i8]* @my_filter_buffer_str) nounwind
  %line_buf_0 = alloca [512 x i32], align 4       ; [#uses=3 type=[512 x i32]*]
  %line_buf_1 = alloca [512 x i32], align 4       ; [#uses=3 type=[512 x i32]*]
  call void @llvm.dbg.value(metadata !{i32* %in_stream_V_data_V}, i64 0, metadata !162), !dbg !2634 ; [debug line = 33:50] [debug variable = in_stream.V.data.V]
  call void @llvm.dbg.value(metadata !{i4* %in_stream_V_keep_V}, i64 0, metadata !2635), !dbg !2634 ; [debug line = 33:50] [debug variable = in_stream.V.keep.V]
  call void @llvm.dbg.value(metadata !{i4* %in_stream_V_strb_V}, i64 0, metadata !2647), !dbg !2634 ; [debug line = 33:50] [debug variable = in_stream.V.strb.V]
  call void @llvm.dbg.value(metadata !{i2* %in_stream_V_user_V}, i64 0, metadata !2648), !dbg !2634 ; [debug line = 33:50] [debug variable = in_stream.V.user.V]
  call void @llvm.dbg.value(metadata !{i1* %in_stream_V_last_V}, i64 0, metadata !2660), !dbg !2634 ; [debug line = 33:50] [debug variable = in_stream.V.last.V]
  call void @llvm.dbg.value(metadata !{i5* %in_stream_V_id_V}, i64 0, metadata !2672), !dbg !2634 ; [debug line = 33:50] [debug variable = in_stream.V.id.V]
  call void @llvm.dbg.value(metadata !{i6* %in_stream_V_dest_V}, i64 0, metadata !2684), !dbg !2634 ; [debug line = 33:50] [debug variable = in_stream.V.dest.V]
  call void @llvm.dbg.value(metadata !{i32* %out_stream_V_data_V}, i64 0, metadata !2696), !dbg !2698 ; [debug line = 34:35] [debug variable = out_stream.V.data.V]
  call void @llvm.dbg.value(metadata !{i4* %out_stream_V_keep_V}, i64 0, metadata !2699), !dbg !2698 ; [debug line = 34:35] [debug variable = out_stream.V.keep.V]
  call void @llvm.dbg.value(metadata !{i4* %out_stream_V_strb_V}, i64 0, metadata !2700), !dbg !2698 ; [debug line = 34:35] [debug variable = out_stream.V.strb.V]
  call void @llvm.dbg.value(metadata !{i2* %out_stream_V_user_V}, i64 0, metadata !2701), !dbg !2698 ; [debug line = 34:35] [debug variable = out_stream.V.user.V]
  call void @llvm.dbg.value(metadata !{i1* %out_stream_V_last_V}, i64 0, metadata !2702), !dbg !2698 ; [debug line = 34:35] [debug variable = out_stream.V.last.V]
  call void @llvm.dbg.value(metadata !{i5* %out_stream_V_id_V}, i64 0, metadata !2703), !dbg !2698 ; [debug line = 34:35] [debug variable = out_stream.V.id.V]
  call void @llvm.dbg.value(metadata !{i6* %out_stream_V_dest_V}, i64 0, metadata !2704), !dbg !2698 ; [debug line = 34:35] [debug variable = out_stream.V.dest.V]
  call void @llvm.dbg.value(metadata !{i8* %kernel_0}, i64 0, metadata !2705), !dbg !2711 ; [debug line = 35:16] [debug variable = kernel[0]]
  call void @llvm.dbg.value(metadata !{i8* %kernel_1}, i64 0, metadata !2712), !dbg !2711 ; [debug line = 35:16] [debug variable = kernel[1]]
  call void @llvm.dbg.value(metadata !{i8* %kernel_2}, i64 0, metadata !2713), !dbg !2711 ; [debug line = 35:16] [debug variable = kernel[2]]
  call void @llvm.dbg.value(metadata !{i8* %kernel_3}, i64 0, metadata !2714), !dbg !2711 ; [debug line = 35:16] [debug variable = kernel[3]]
  call void @llvm.dbg.value(metadata !{i8* %kernel_4}, i64 0, metadata !2715), !dbg !2711 ; [debug line = 35:16] [debug variable = kernel[4]]
  call void @llvm.dbg.value(metadata !{i8* %kernel_5}, i64 0, metadata !2716), !dbg !2711 ; [debug line = 35:16] [debug variable = kernel[5]]
  call void @llvm.dbg.value(metadata !{i8* %kernel_6}, i64 0, metadata !2717), !dbg !2711 ; [debug line = 35:16] [debug variable = kernel[6]]
  call void @llvm.dbg.value(metadata !{i8* %kernel_7}, i64 0, metadata !2718), !dbg !2711 ; [debug line = 35:16] [debug variable = kernel[7]]
  call void @llvm.dbg.value(metadata !{i8* %kernel_8}, i64 0, metadata !2719), !dbg !2711 ; [debug line = 35:16] [debug variable = kernel[8]]
  call void (...)* @_ssdm_op_SpecInterface(i32* %out_stream_V_data_V, i4* %out_stream_V_keep_V, i4* %out_stream_V_strb_V, i2* %out_stream_V_user_V, i1* %out_stream_V_last_V, i5* %out_stream_V_id_V, i6* %out_stream_V_dest_V, [5 x i8]* @p_str, i32 1, i32 1, [5 x i8]* @p_str1, i32 0, i32 0, [1 x i8]* @p_str2, [1 x i8]* @p_str2, [1 x i8]* @p_str2, i32 0, i32 0, i32 0, i32 0, [1 x i8]* @p_str2, [1 x i8]* @p_str2) nounwind, !dbg !2720 ; [debug line = 37:1]
  call void (...)* @_ssdm_op_SpecInterface(i32* %in_stream_V_data_V, i4* %in_stream_V_keep_V, i4* %in_stream_V_strb_V, i2* %in_stream_V_user_V, i1* %in_stream_V_last_V, i5* %in_stream_V_id_V, i6* %in_stream_V_dest_V, [5 x i8]* @p_str, i32 1, i32 1, [5 x i8]* @p_str1, i32 0, i32 0, [1 x i8]* @p_str2, [1 x i8]* @p_str2, [1 x i8]* @p_str2, i32 0, i32 0, i32 0, i32 0, [1 x i8]* @p_str2, [1 x i8]* @p_str2) nounwind, !dbg !2722 ; [debug line = 38:1]
  call void (...)* @_ssdm_op_SpecInterface(i8* %kernel_0, i8* %kernel_1, i8* %kernel_2, i8* %kernel_3, i8* %kernel_4, i8* %kernel_5, i8* %kernel_6, i8* %kernel_7, i8* %kernel_8, [10 x i8]* @p_str3, i32 0, i32 0, [1 x i8]* @p_str2, i32 0, i32 0, [11 x i8]* @p_str4, [1 x i8]* @p_str2, [1 x i8]* @p_str2, i32 0, i32 0, i32 0, i32 0, [1 x i8]* @p_str2, [1 x i8]* @p_str2) nounwind
  call void (...)* @_ssdm_op_SpecInterface(i32 0, [10 x i8]* @p_str3, i32 0, i32 0, [1 x i8]* @p_str2, i32 0, i32 0, [5 x i8]* @p_str5, [1 x i8]* @p_str2, [1 x i8]* @p_str2, i32 0, i32 0, i32 0, i32 0, [1 x i8]* @p_str2, [1 x i8]* @p_str2) nounwind, !dbg !2723 ; [debug line = 40:1]
  call void @llvm.dbg.declare(metadata !{[512 x i32]* %line_buf_0}, metadata !2724), !dbg !2732 ; [debug line = 46:11] [debug variable = line_buf[0]]
  call void @llvm.dbg.declare(metadata !{[512 x i32]* %line_buf_1}, metadata !2733), !dbg !2732 ; [debug line = 46:11] [debug variable = line_buf[1]]
  br label %1, !dbg !2734                         ; [debug line = 58:57]

; <label>:1                                       ; preds = %2, %0
  %x = phi i10 [ 510, %0 ], [ %x_1, %2 ]          ; [#uses=3 type=i10]
  %exitcond1 = icmp eq i10 %x, -512, !dbg !2734   ; [#uses=1 type=i1] [debug line = 58:57]
  br i1 %exitcond1, label %.preheader75.0.preheader, label %2, !dbg !2734 ; [debug line = 58:57]

.preheader75.0.preheader:                         ; preds = %1
  br label %.preheader75.0, !dbg !2736            ; [debug line = 67:17]

; <label>:2                                       ; preds = %1
  %x_cast7 = zext i10 %x to i32, !dbg !2734       ; [#uses=1 type=i32] [debug line = 58:57]
  %empty = call i32 (...)* @_ssdm_op_SpecLoopTripCount(i64 2, i64 2, i64 2) ; [#uses=0 type=i32]
  %tmp = call i32 (...)* @_ssdm_op_SpecRegionBegin([12 x i8]* @p_str7), !dbg !2740 ; [#uses=1 type=i32] [debug line = 59:3]
  call void (...)* @_ssdm_op_SpecPipeline(i32 -1, i32 1, i32 1, i32 0, [1 x i8]* @p_str2) nounwind, !dbg !2742 ; [debug line = 60:1]
  call void @llvm.dbg.value(metadata !{i32* %in_stream_V_data_V}, i64 0, metadata !2743), !dbg !2748 ; [debug line = 129:56@61:20] [debug variable = stream<ap_axis<32, 2, 5, 6> >.V.data.V]
  call void @llvm.dbg.value(metadata !{i4* %in_stream_V_keep_V}, i64 0, metadata !2750), !dbg !2748 ; [debug line = 129:56@61:20] [debug variable = stream<ap_axis<32, 2, 5, 6> >.V.keep.V]
  call void @llvm.dbg.value(metadata !{i4* %in_stream_V_strb_V}, i64 0, metadata !2752), !dbg !2748 ; [debug line = 129:56@61:20] [debug variable = stream<ap_axis<32, 2, 5, 6> >.V.strb.V]
  call void @llvm.dbg.value(metadata !{i2* %in_stream_V_user_V}, i64 0, metadata !2753), !dbg !2748 ; [debug line = 129:56@61:20] [debug variable = stream<ap_axis<32, 2, 5, 6> >.V.user.V]
  call void @llvm.dbg.value(metadata !{i1* %in_stream_V_last_V}, i64 0, metadata !2755), !dbg !2748 ; [debug line = 129:56@61:20] [debug variable = stream<ap_axis<32, 2, 5, 6> >.V.last.V]
  call void @llvm.dbg.value(metadata !{i5* %in_stream_V_id_V}, i64 0, metadata !2757), !dbg !2748 ; [debug line = 129:56@61:20] [debug variable = stream<ap_axis<32, 2, 5, 6> >.V.id.V]
  call void @llvm.dbg.value(metadata !{i6* %in_stream_V_dest_V}, i64 0, metadata !2759), !dbg !2748 ; [debug line = 129:56@61:20] [debug variable = stream<ap_axis<32, 2, 5, 6> >.V.dest.V]
  %empty_5 = call { i32, i4, i4, i2, i1, i5, i6 } @_ssdm_op_Read.axis.volatile.i32P.i4P.i4P.i2P.i1P.i5P.i6P(i32* %in_stream_V_data_V, i4* %in_stream_V_keep_V, i4* %in_stream_V_strb_V, i2* %in_stream_V_user_V, i1* %in_stream_V_last_V, i5* %in_stream_V_id_V, i6* %in_stream_V_dest_V), !dbg !2761 ; [#uses=1 type={ i32, i4, i4, i2, i1, i5, i6 }] [debug line = 131:9@61:20]
  %tmp_data_V = extractvalue { i32, i4, i4, i2, i1, i5, i6 } %empty_5, 0, !dbg !2761 ; [#uses=1 type=i32] [debug line = 131:9@61:20]
  call void @llvm.dbg.value(metadata !{i32 %tmp_data_V}, i64 0, metadata !2763), !dbg !2761 ; [debug line = 131:9@61:20] [debug variable = tmp.data.V]
  %line_buf_0_addr = getelementptr [512 x i32]* %line_buf_0, i32 0, i32 %x_cast7 ; [#uses=1 type=i32*]
  store i32 %tmp_data_V, i32* %line_buf_0_addr, align 4, !dbg !2765 ; [debug line = 62:55]
  %empty_6 = call i32 (...)* @_ssdm_op_SpecRegionEnd([12 x i8]* @p_str7, i32 %tmp), !dbg !2766 ; [#uses=0 type=i32] [debug line = 63:2]
  %x_1 = add i10 %x, 1, !dbg !2767                ; [#uses=1 type=i10] [debug line = 58:68]
  call void @llvm.dbg.value(metadata !{i10 %x_1}, i64 0, metadata !2768), !dbg !2767 ; [debug line = 58:68] [debug variable = x]
  br label %1, !dbg !2767                         ; [debug line = 58:68]

.preheader75.0:                                   ; preds = %3, %.preheader75.0.preheader
  %x1 = phi i10 [ %x_2, %3 ], [ 0, %.preheader75.0.preheader ] ; [#uses=3 type=i10]
  %exitcond4 = icmp eq i10 %x1, -512, !dbg !2736  ; [#uses=1 type=i1] [debug line = 67:17]
  %x_2 = add i10 %x1, 1, !dbg !2769               ; [#uses=1 type=i10] [debug line = 67:28]
  br i1 %exitcond4, label %.preheader73.preheader, label %3, !dbg !2736 ; [debug line = 67:17]

.preheader73.preheader:                           ; preds = %.preheader75.0
  br label %.preheader73

; <label>:3                                       ; preds = %.preheader75.0
  %x1_cast6 = zext i10 %x1 to i32, !dbg !2736     ; [#uses=1 type=i32] [debug line = 67:17]
  %empty_7 = call i32 (...)* @_ssdm_op_SpecLoopTripCount(i64 512, i64 512, i64 512) ; [#uses=0 type=i32]
  %tmp_2 = call i32 (...)* @_ssdm_op_SpecRegionBegin([12 x i8]* @p_str8), !dbg !2770 ; [#uses=1 type=i32] [debug line = 68:4]
  call void (...)* @_ssdm_op_SpecPipeline(i32 -1, i32 1, i32 1, i32 0, [1 x i8]* @p_str2) nounwind, !dbg !2772 ; [debug line = 69:1]
  call void @llvm.dbg.value(metadata !{i32* %in_stream_V_data_V}, i64 0, metadata !2743), !dbg !2773 ; [debug line = 129:56@70:20] [debug variable = stream<ap_axis<32, 2, 5, 6> >.V.data.V]
  call void @llvm.dbg.value(metadata !{i4* %in_stream_V_keep_V}, i64 0, metadata !2750), !dbg !2773 ; [debug line = 129:56@70:20] [debug variable = stream<ap_axis<32, 2, 5, 6> >.V.keep.V]
  call void @llvm.dbg.value(metadata !{i4* %in_stream_V_strb_V}, i64 0, metadata !2752), !dbg !2773 ; [debug line = 129:56@70:20] [debug variable = stream<ap_axis<32, 2, 5, 6> >.V.strb.V]
  call void @llvm.dbg.value(metadata !{i2* %in_stream_V_user_V}, i64 0, metadata !2753), !dbg !2773 ; [debug line = 129:56@70:20] [debug variable = stream<ap_axis<32, 2, 5, 6> >.V.user.V]
  call void @llvm.dbg.value(metadata !{i1* %in_stream_V_last_V}, i64 0, metadata !2755), !dbg !2773 ; [debug line = 129:56@70:20] [debug variable = stream<ap_axis<32, 2, 5, 6> >.V.last.V]
  call void @llvm.dbg.value(metadata !{i5* %in_stream_V_id_V}, i64 0, metadata !2757), !dbg !2773 ; [debug line = 129:56@70:20] [debug variable = stream<ap_axis<32, 2, 5, 6> >.V.id.V]
  call void @llvm.dbg.value(metadata !{i6* %in_stream_V_dest_V}, i64 0, metadata !2759), !dbg !2773 ; [debug line = 129:56@70:20] [debug variable = stream<ap_axis<32, 2, 5, 6> >.V.dest.V]
  %empty_8 = call { i32, i4, i4, i2, i1, i5, i6 } @_ssdm_op_Read.axis.volatile.i32P.i4P.i4P.i2P.i1P.i5P.i6P(i32* %in_stream_V_data_V, i4* %in_stream_V_keep_V, i4* %in_stream_V_strb_V, i2* %in_stream_V_user_V, i1* %in_stream_V_last_V, i5* %in_stream_V_id_V, i6* %in_stream_V_dest_V), !dbg !2775 ; [#uses=1 type={ i32, i4, i4, i2, i1, i5, i6 }] [debug line = 131:9@70:20]
  %tmp_data_V_1 = extractvalue { i32, i4, i4, i2, i1, i5, i6 } %empty_8, 0, !dbg !2775 ; [#uses=1 type=i32] [debug line = 131:9@70:20]
  call void @llvm.dbg.value(metadata !{i32 %tmp_data_V_1}, i64 0, metadata !2763), !dbg !2775 ; [debug line = 131:9@70:20] [debug variable = tmp.data.V]
  %line_buf_1_addr = getelementptr [512 x i32]* %line_buf_1, i32 0, i32 %x1_cast6 ; [#uses=1 type=i32*]
  store i32 %tmp_data_V_1, i32* %line_buf_1_addr, align 4, !dbg !2776 ; [debug line = 71:21]
  %empty_9 = call i32 (...)* @_ssdm_op_SpecRegionEnd([12 x i8]* @p_str8, i32 %tmp_2), !dbg !2777 ; [#uses=0 type=i32] [debug line = 72:3]
  br label %.preheader75.0, !dbg !2769            ; [debug line = 67:28]

.preheader73:                                     ; preds = %.preheader74, %.preheader73.preheader
  %indvar_flatten = phi i3 [ %indvar_flatten_next, %.preheader74 ], [ 0, %.preheader73.preheader ] ; [#uses=2 type=i3]
  %y2 = phi i2 [ %tmp_3_mid2_v, %.preheader74 ], [ 1, %.preheader73.preheader ] ; [#uses=4 type=i2]
  %window_2_2_1 = phi i32 [ %window_2_2_6, %.preheader74 ], [ undef, %.preheader73.preheader ] ; [#uses=3 type=i32]
  %window_2_1_1 = phi i32 [ %window_2_2_7, %.preheader74 ], [ undef, %.preheader73.preheader ] ; [#uses=3 type=i32]
  %window_1_2_1 = phi i32 [ %window_2_2_8, %.preheader74 ], [ undef, %.preheader73.preheader ] ; [#uses=3 type=i32]
  %window_1_1_1 = phi i32 [ %window_2_2_9, %.preheader74 ], [ undef, %.preheader73.preheader ] ; [#uses=3 type=i32]
  %x3 = phi i2 [ %x_3, %.preheader74 ], [ 1, %.preheader73.preheader ] ; [#uses=2 type=i2]
  %exitcond_flatten = icmp eq i3 %indvar_flatten, -4 ; [#uses=1 type=i1]
  %indvar_flatten_next = add i3 %indvar_flatten, 1 ; [#uses=1 type=i3]
  br i1 %exitcond_flatten, label %.preheader71.preheader, label %.preheader74

.preheader71.preheader:                           ; preds = %.preheader73
  %window_0_0_read_as = alloca i32                ; [#uses=2 type=i32*]
  call void @llvm.dbg.declare(metadata !{i32* %window_0_0_read_as}, metadata !2778) ; [debug variable = window[0][0]]
  %window_0_0 = alloca i32                        ; [#uses=2 type=i32*]
  call void @llvm.dbg.declare(metadata !{i32* %window_0_0}, metadata !2796) ; [debug variable = window[0][0]]
  %window_0_1 = alloca i32                        ; [#uses=3 type=i32*]
  call void @llvm.dbg.declare(metadata !{i32* %window_0_1}, metadata !2798) ; [debug variable = window[0][1]]
  %window_1_0_read_as = alloca i32                ; [#uses=2 type=i32*]
  call void @llvm.dbg.declare(metadata !{i32* %window_1_0_read_as}, metadata !2799) ; [debug variable = window[1][0]]
  %window_2_0_read_as = alloca i32                ; [#uses=2 type=i32*]
  call void @llvm.dbg.declare(metadata !{i32* %window_2_0_read_as}, metadata !2800) ; [debug variable = window[2][0]]
  %read_count_1 = alloca i32                      ; [#uses=3 type=i32*]
  call void @llvm.dbg.declare(metadata !{i32* %read_count_1}, metadata !2801) ; [debug variable = read_count]
  store i32 514, i32* %read_count_1
  br label %.preheader71, !dbg !2802              ; [debug line = 10:3@22:8@93:18]

.preheader74:                                     ; preds = %.preheader73
  %empty_10 = call i32 (...)* @_ssdm_op_SpecLoopTripCount(i64 4, i64 4, i64 4) ; [#uses=0 type=i32]
  %exitcond = icmp eq i2 %x3, -1, !dbg !2813      ; [#uses=3 type=i1] [debug line = 78:48]
  %x3_mid2 = select i1 %exitcond, i2 1, i2 %x3    ; [#uses=3 type=i2]
  %y9 = add i2 1, %y2, !dbg !2817                 ; [#uses=1 type=i2] [debug line = 76:73]
  %tmp_3_mid2_v = select i1 %exitcond, i2 %y9, i2 %y2, !dbg !2818 ; [#uses=2 type=i2] [debug line = 81:2]
  %tmp_1 = trunc i2 %tmp_3_mid2_v to i1, !dbg !2818 ; [#uses=1 type=i1] [debug line = 81:2]
  %cond_mid1 = icmp eq i2 %y2, 0, !dbg !2818      ; [#uses=1 type=i1] [debug line = 81:2]
  %cond = icmp eq i2 %y2, 1, !dbg !2818           ; [#uses=1 type=i1] [debug line = 81:2]
  %cond_mid2 = select i1 %exitcond, i1 %cond_mid1, i1 %cond, !dbg !2818 ; [#uses=4 type=i1] [debug line = 81:2]
  %x3_cast4_cast = zext i2 %x3_mid2 to i3, !dbg !2813 ; [#uses=1 type=i3] [debug line = 78:48]
  %tmp_6 = call i32 (...)* @_ssdm_op_SpecRegionBegin([12 x i8]* @p_str9), !dbg !2820 ; [#uses=1 type=i32] [debug line = 79:4]
  call void (...)* @_ssdm_op_SpecPipeline(i32 -1, i32 1, i32 1, i32 0, [1 x i8]* @p_str2) nounwind, !dbg !2821 ; [debug line = 80:1]
  %tmp_s = add i3 -3, %x3_cast4_cast, !dbg !2818  ; [#uses=1 type=i3] [debug line = 81:2]
  %tmp_cast8 = sext i3 %tmp_s to i9, !dbg !2818   ; [#uses=1 type=i9] [debug line = 81:2]
  %tmp_cast = zext i9 %tmp_cast8 to i32, !dbg !2818 ; [#uses=2 type=i32] [debug line = 81:2]
  %line_buf_0_addr_2 = getelementptr [512 x i32]* %line_buf_0, i32 0, i32 %tmp_cast, !dbg !2818 ; [#uses=1 type=i32*] [debug line = 81:2]
  %line_buf_1_addr_2 = getelementptr [512 x i32]* %line_buf_1, i32 0, i32 %tmp_cast, !dbg !2818 ; [#uses=1 type=i32*] [debug line = 81:2]
  %line_buf_0_load = load i32* %line_buf_0_addr_2, align 4, !dbg !2818 ; [#uses=1 type=i32] [debug line = 81:2]
  %line_buf_1_load = load i32* %line_buf_1_addr_2, align 4, !dbg !2818 ; [#uses=1 type=i32] [debug line = 81:2]
  %window_1_1_2 = select i1 %tmp_1, i32 %line_buf_0_load, i32 %line_buf_1_load, !dbg !2818 ; [#uses=4 type=i32] [debug line = 81:2]
  %cond1 = icmp eq i2 %x3_mid2, 1, !dbg !2818     ; [#uses=4 type=i1] [debug line = 81:2]
  call void @llvm.dbg.value(metadata !{i32 %window_1_1_2}, i64 0, metadata !2822), !dbg !2818 ; [debug line = 81:2] [debug variable = window[1][1]]
  call void @llvm.dbg.value(metadata !{i32 %window_1_1_2}, i64 0, metadata !2823), !dbg !2818 ; [debug line = 81:2] [debug variable = window[1][2]]
  %window_2_2_1_11 = select i1 %cond1, i32 %window_1_2_1, i32 %window_1_1_2, !dbg !2818 ; [#uses=1 type=i32] [debug line = 81:2]
  call void @llvm.dbg.value(metadata !{i32 %window_2_2_1_11}, i64 0, metadata !2824), !dbg !2818 ; [debug line = 81:2] [debug variable = window[2][2]]
  %window_2_2_2 = select i1 %cond1, i32 %window_1_1_2, i32 %window_1_1_1, !dbg !2818 ; [#uses=1 type=i32] [debug line = 81:2]
  call void @llvm.dbg.value(metadata !{i32 %window_2_2_2}, i64 0, metadata !2824), !dbg !2818 ; [debug line = 81:2] [debug variable = window[2][2]]
  call void @llvm.dbg.value(metadata !{i32 %window_1_1_2}, i64 0, metadata !2825), !dbg !2818 ; [debug line = 81:2] [debug variable = window[2][1]]
  call void @llvm.dbg.value(metadata !{i32 %window_1_1_2}, i64 0, metadata !2824), !dbg !2818 ; [debug line = 81:2] [debug variable = window[2][2]]
  %window_2_2_4 = select i1 %cond1, i32 %window_2_2_1, i32 %window_1_1_2, !dbg !2818 ; [#uses=1 type=i32] [debug line = 81:2]
  call void @llvm.dbg.value(metadata !{i32 %window_2_2_4}, i64 0, metadata !2824), !dbg !2818 ; [debug line = 81:2] [debug variable = window[2][2]]
  %window_2_2_5 = select i1 %cond1, i32 %window_1_1_2, i32 %window_2_1_1, !dbg !2818 ; [#uses=1 type=i32] [debug line = 81:2]
  call void @llvm.dbg.value(metadata !{i32 %window_2_2_5}, i64 0, metadata !2824), !dbg !2818 ; [debug line = 81:2] [debug variable = window[2][2]]
  %window_2_2_6 = select i1 %cond_mid2, i32 %window_2_2_1, i32 %window_2_2_4 ; [#uses=1 type=i32]
  call void @llvm.dbg.value(metadata !{i32 %window_2_2_6}, i64 0, metadata !2824), !dbg !2818 ; [debug line = 81:2] [debug variable = window[2][2]]
  %window_2_2_7 = select i1 %cond_mid2, i32 %window_2_1_1, i32 %window_2_2_5 ; [#uses=1 type=i32]
  call void @llvm.dbg.value(metadata !{i32 %window_2_2_7}, i64 0, metadata !2824), !dbg !2818 ; [debug line = 81:2] [debug variable = window[2][2]]
  %window_2_2_8 = select i1 %cond_mid2, i32 %window_2_2_1_11, i32 %window_1_2_1 ; [#uses=1 type=i32]
  call void @llvm.dbg.value(metadata !{i32 %window_2_2_8}, i64 0, metadata !2824), !dbg !2818 ; [debug line = 81:2] [debug variable = window[2][2]]
  %window_2_2_9 = select i1 %cond_mid2, i32 %window_2_2_2, i32 %window_1_1_1 ; [#uses=1 type=i32]
  call void @llvm.dbg.value(metadata !{i32 %window_2_2_9}, i64 0, metadata !2824), !dbg !2818 ; [debug line = 81:2] [debug variable = window[2][2]]
  %empty_12 = call i32 (...)* @_ssdm_op_SpecRegionEnd([12 x i8]* @p_str9, i32 %tmp_6), !dbg !2826 ; [#uses=0 type=i32] [debug line = 82:3]
  %x_3 = add i2 1, %x3_mid2, !dbg !2827           ; [#uses=1 type=i2] [debug line = 78:74]
  call void @llvm.dbg.value(metadata !{i2 %x_3}, i64 0, metadata !2828), !dbg !2827 ; [debug line = 78:74] [debug variable = x]
  br label %.preheader73, !dbg !2827              ; [debug line = 78:74]

.preheader71:                                     ; preds = %._crit_edge, %.preheader71.preheader
  %indvar_flatten6 = phi i19 [ %indvar_flatten_next7, %._crit_edge ], [ 0, %.preheader71.preheader ] ; [#uses=2 type=i19]
  %y_assign = phi i10 [ %y_assign_mid2, %._crit_edge ], [ 0, %.preheader71.preheader ] ; [#uses=4 type=i10]
  %window_2_1 = phi i32 [ %window_2_2, %._crit_edge ], [ %window_2_2_1, %.preheader71.preheader ] ; [#uses=2 type=i32]
  %window_2_0 = phi i32 [ %window_2_1, %._crit_edge ], [ %window_2_1_1, %.preheader71.preheader ] ; [#uses=2 type=i32]
  %window_1_1 = phi i32 [ %window_1_2, %._crit_edge ], [ %window_1_2_1, %.preheader71.preheader ] ; [#uses=2 type=i32]
  %window_1_0 = phi i32 [ %window_1_1, %._crit_edge ], [ %window_1_1_1, %.preheader71.preheader ] ; [#uses=2 type=i32]
  %x_assign = phi i10 [ %x_4, %._crit_edge ], [ 0, %.preheader71.preheader ] ; [#uses=2 type=i10]
  %window_0_0_read_as_1 = load i32* %window_0_0_read_as, !dbg !2829 ; [#uses=1 type=i32] [debug line = 24:5@93:18]
  %window_0_0_load = load i32* %window_0_0, !dbg !2829 ; [#uses=2 type=i32] [debug line = 24:5@93:18]
  %window_0_1_load_1 = load i32* %window_0_1      ; [#uses=1 type=i32]
  %window_1_0_read_as_1 = load i32* %window_1_0_read_as, !dbg !2829 ; [#uses=1 type=i32] [debug line = 24:5@93:18]
  %window_2_0_read_as_1 = load i32* %window_2_0_read_as, !dbg !2829 ; [#uses=1 type=i32] [debug line = 24:5@93:18]
  %tmp_i_i = icmp ne i10 %y_assign, 0, !dbg !2802 ; [#uses=1 type=i1] [debug line = 10:3@22:8@93:18]
  %y = add i10 %y_assign, 1, !dbg !2807           ; [#uses=4 type=i10] [debug line = 22:8@93:18]
  %tmp_3 = call i1 @_ssdm_op_BitSelect.i1.i10.i32(i10 %y, i32 9), !dbg !2802 ; [#uses=1 type=i1] [debug line = 10:3@22:8@93:18]
  call void @llvm.dbg.value(metadata !{i10 %y}, i64 0, metadata !2831), !dbg !2832 ; [debug line = 86:27] [debug variable = y]
  %exitcond_flatten8 = icmp eq i19 %indvar_flatten6, -262144 ; [#uses=1 type=i1]
  %indvar_flatten_next7 = add i19 %indvar_flatten6, 1 ; [#uses=1 type=i19]
  store i32 %window_2_0, i32* %window_2_0_read_as
  store i32 %window_1_0, i32* %window_1_0_read_as
  store i32 %window_0_1_load_1, i32* %window_0_0
  store i32 %window_0_0_load, i32* %window_0_0_read_as
  br i1 %exitcond_flatten8, label %5, label %.preheader72

; <label>:4                                       ; preds = %.preheader72
  call void @llvm.dbg.value(metadata !{i32* %in_stream_V_data_V}, i64 0, metadata !2743), !dbg !2833 ; [debug line = 129:56@115:23] [debug variable = stream<ap_axis<32, 2, 5, 6> >.V.data.V]
  call void @llvm.dbg.value(metadata !{i4* %in_stream_V_keep_V}, i64 0, metadata !2750), !dbg !2833 ; [debug line = 129:56@115:23] [debug variable = stream<ap_axis<32, 2, 5, 6> >.V.keep.V]
  call void @llvm.dbg.value(metadata !{i4* %in_stream_V_strb_V}, i64 0, metadata !2752), !dbg !2833 ; [debug line = 129:56@115:23] [debug variable = stream<ap_axis<32, 2, 5, 6> >.V.strb.V]
  call void @llvm.dbg.value(metadata !{i2* %in_stream_V_user_V}, i64 0, metadata !2753), !dbg !2833 ; [debug line = 129:56@115:23] [debug variable = stream<ap_axis<32, 2, 5, 6> >.V.user.V]
  call void @llvm.dbg.value(metadata !{i1* %in_stream_V_last_V}, i64 0, metadata !2755), !dbg !2833 ; [debug line = 129:56@115:23] [debug variable = stream<ap_axis<32, 2, 5, 6> >.V.last.V]
  call void @llvm.dbg.value(metadata !{i5* %in_stream_V_id_V}, i64 0, metadata !2757), !dbg !2833 ; [debug line = 129:56@115:23] [debug variable = stream<ap_axis<32, 2, 5, 6> >.V.id.V]
  call void @llvm.dbg.value(metadata !{i6* %in_stream_V_dest_V}, i64 0, metadata !2759), !dbg !2833 ; [debug line = 129:56@115:23] [debug variable = stream<ap_axis<32, 2, 5, 6> >.V.dest.V]
  %empty_13 = call { i32, i4, i4, i2, i1, i5, i6 } @_ssdm_op_Read.axis.volatile.i32P.i4P.i4P.i2P.i1P.i5P.i6P(i32* %in_stream_V_data_V, i4* %in_stream_V_keep_V, i4* %in_stream_V_strb_V, i2* %in_stream_V_user_V, i1* %in_stream_V_last_V, i5* %in_stream_V_id_V, i6* %in_stream_V_dest_V), !dbg !2836 ; [#uses=1 type={ i32, i4, i4, i2, i1, i5, i6 }] [debug line = 131:9@115:23]
  %tmp_data_V_4 = extractvalue { i32, i4, i4, i2, i1, i5, i6 } %empty_13, 0, !dbg !2836 ; [#uses=1 type=i32] [debug line = 131:9@115:23]
  call void @llvm.dbg.value(metadata !{i32 %tmp_data_V_4}, i64 0, metadata !2763), !dbg !2836 ; [debug line = 131:9@115:23] [debug variable = tmp.data.V]
  call void @llvm.dbg.value(metadata !{i32 %tmp_data_V_4}, i64 0, metadata !2837), !dbg !2838 ; [debug line = 116:14] [debug variable = val_in]
  %read_count = add nsw i32 %read_count_1_load, 1, !dbg !2839 ; [#uses=1 type=i32] [debug line = 117:5]
  call void @llvm.dbg.value(metadata !{i32 %read_count}, i64 0, metadata !2801), !dbg !2839 ; [debug line = 117:5] [debug variable = read_count]
  store i32 %read_count, i32* %read_count_1, !dbg !2839 ; [debug line = 117:5]
  br label %._crit_edge, !dbg !2840               ; [debug line = 118:4]

._crit_edge:                                      ; preds = %.preheader72, %4
  %window_2_2 = phi i32 [ %tmp_data_V_4, %4 ], [ 0, %.preheader72 ] ; [#uses=2 type=i32]
  store i32 %window_2_2, i32* %line_buf_1_addr_1, align 4, !dbg !2841 ; [debug line = 119:4]
  call void @llvm.dbg.value(metadata !{i32 %window_1_0}, i64 0, metadata !2842), !dbg !2843 ; [debug line = 126:6] [debug variable = window[1][0]]
  call void @llvm.dbg.value(metadata !{i32 %window_1_1}, i64 0, metadata !2822), !dbg !2843 ; [debug line = 126:6] [debug variable = window[1][1]]
  call void @llvm.dbg.value(metadata !{i32 %window_2_0}, i64 0, metadata !2848), !dbg !2843 ; [debug line = 126:6] [debug variable = window[2][0]]
  call void @llvm.dbg.value(metadata !{i32 %window_2_1}, i64 0, metadata !2825), !dbg !2843 ; [debug line = 126:6] [debug variable = window[2][1]]
  call void @llvm.dbg.value(metadata !{i32 %window_0_2}, i64 0, metadata !2849), !dbg !2850 ; [debug line = 133:5] [debug variable = window[0][2]]
  call void @llvm.dbg.value(metadata !{i32 %window_1_2}, i64 0, metadata !2823), !dbg !2850 ; [debug line = 133:5] [debug variable = window[1][2]]
  call void @llvm.dbg.value(metadata !{i32 %window_2_2}, i64 0, metadata !2824), !dbg !2850 ; [debug line = 133:5] [debug variable = window[2][2]]
  %empty_14 = call i32 (...)* @_ssdm_op_SpecRegionEnd([12 x i8]* @p_str10, i32 %tmp_4), !dbg !2853 ; [#uses=0 type=i32] [debug line = 135:3]
  call void @llvm.dbg.value(metadata !{i10 %x_4}, i64 0, metadata !2854), !dbg !2855 ; [debug line = 88:28] [debug variable = x]
  br label %.preheader71, !dbg !2855              ; [debug line = 88:28]

.preheader72:                                     ; preds = %.preheader71
  %window_0_1_load = load i32* %window_0_1, !dbg !2829 ; [#uses=1 type=i32] [debug line = 24:5@93:18]
  %read_count_1_load = load i32* %read_count_1, !dbg !2856 ; [#uses=2 type=i32] [debug line = 113:4]
  call void @llvm.dbg.value(metadata !{i10 %y}, i64 0, metadata !2831), !dbg !2832 ; [debug line = 86:27] [debug variable = y]
  %empty_15 = call i32 (...)* @_ssdm_op_SpecLoopTripCount(i64 262144, i64 262144, i64 262144) ; [#uses=0 type=i32]
  %exitcond2 = icmp eq i10 %x_assign, -512, !dbg !2857 ; [#uses=5 type=i1] [debug line = 88:17]
  %x_assign_mid2 = select i1 %exitcond2, i10 0, i10 %x_assign ; [#uses=3 type=i10]
  %tmp_i_i_mid1 = icmp ne i10 %y, 0, !dbg !2802   ; [#uses=1 type=i1] [debug line = 10:3@22:8@93:18]
  %tmp_i_i_mid2 = select i1 %exitcond2, i1 %tmp_i_i_mid1, i1 %tmp_i_i, !dbg !2802 ; [#uses=3 type=i1] [debug line = 10:3@22:8@93:18]
  %y_assign_1_mid1 = add i10 %y_assign, 2, !dbg !2807 ; [#uses=2 type=i10] [debug line = 22:8@93:18]
  %y_assign_1_mid2 = select i1 %exitcond2, i10 %y_assign_1_mid1, i10 %y, !dbg !2807 ; [#uses=1 type=i10] [debug line = 22:8@93:18]
  %tmp_7 = call i1 @_ssdm_op_BitSelect.i1.i10.i32(i10 %y_assign_1_mid1, i32 9), !dbg !2802 ; [#uses=1 type=i1] [debug line = 10:3@22:8@93:18]
  %tmp_i2_i_mid2_v = select i1 %exitcond2, i1 %tmp_7, i1 %tmp_3, !dbg !2802 ; [#uses=2 type=i1] [debug line = 10:3@22:8@93:18]
  %tmp_i2_i_mid2 = xor i1 %tmp_i2_i_mid2_v, true, !dbg !2802 ; [#uses=1 type=i1] [debug line = 10:3@22:8@93:18]
  %y_assign_mid2 = select i1 %exitcond2, i10 %y, i10 %y_assign ; [#uses=2 type=i10]
  %x5_cast1 = zext i10 %x_assign_mid2 to i32, !dbg !2857 ; [#uses=2 type=i32] [debug line = 88:17]
  %tmp_4 = call i32 (...)* @_ssdm_op_SpecRegionBegin([12 x i8]* @p_str10), !dbg !2858 ; [#uses=1 type=i32] [debug line = 89:4]
  call void (...)* @_ssdm_op_SpecPipeline(i32 -1, i32 1, i32 1, i32 0, [1 x i8]* @p_str2) nounwind, !dbg !2859 ; [debug line = 90:1]
  %kernel_0_read = call i8 @_ssdm_op_Read.s_axilite.i8P(i8* %kernel_0), !dbg !2791 ; [#uses=1 type=i8] [debug line = 93:18]
  %kernel_1_read = call i8 @_ssdm_op_Read.s_axilite.i8P(i8* %kernel_1), !dbg !2791 ; [#uses=1 type=i8] [debug line = 93:18]
  %kernel_2_read = call i8 @_ssdm_op_Read.s_axilite.i8P(i8* %kernel_2), !dbg !2791 ; [#uses=1 type=i8] [debug line = 93:18]
  %kernel_3_read = call i8 @_ssdm_op_Read.s_axilite.i8P(i8* %kernel_3), !dbg !2791 ; [#uses=1 type=i8] [debug line = 93:18]
  %kernel_4_read = call i8 @_ssdm_op_Read.s_axilite.i8P(i8* %kernel_4), !dbg !2791 ; [#uses=1 type=i8] [debug line = 93:18]
  %kernel_5_read = call i8 @_ssdm_op_Read.s_axilite.i8P(i8* %kernel_5), !dbg !2791 ; [#uses=1 type=i8] [debug line = 93:18]
  %kernel_6_read = call i8 @_ssdm_op_Read.s_axilite.i8P(i8* %kernel_6), !dbg !2791 ; [#uses=1 type=i8] [debug line = 93:18]
  %kernel_7_read = call i8 @_ssdm_op_Read.s_axilite.i8P(i8* %kernel_7), !dbg !2791 ; [#uses=1 type=i8] [debug line = 93:18]
  %kernel_8_read = call i8 @_ssdm_op_Read.s_axilite.i8P(i8* %kernel_8), !dbg !2791 ; [#uses=1 type=i8] [debug line = 93:18]
  call void @llvm.dbg.value(metadata !{i32 %window_1_0}, i64 0, metadata !2860), !dbg !2861 ; [debug line = 14:43@93:18] [debug variable = window[1][1]]
  call void @llvm.dbg.value(metadata !{i32 %window_1_1}, i64 0, metadata !2862), !dbg !2861 ; [debug line = 14:43@93:18] [debug variable = window[1][2]]
  call void @llvm.dbg.value(metadata !{i32 %window_2_0}, i64 0, metadata !2863), !dbg !2861 ; [debug line = 14:43@93:18] [debug variable = window[2][1]]
  call void @llvm.dbg.value(metadata !{i32 %window_2_1}, i64 0, metadata !2864), !dbg !2861 ; [debug line = 14:43@93:18] [debug variable = window[2][2]]
  call void @llvm.dbg.value(metadata !{i8 %kernel_0_read}, i64 0, metadata !2865), !dbg !2867 ; [debug line = 14:99@93:18] [debug variable = kernel[0]]
  call void @llvm.dbg.value(metadata !{i8 %kernel_1_read}, i64 0, metadata !2868), !dbg !2867 ; [debug line = 14:99@93:18] [debug variable = kernel[1]]
  call void @llvm.dbg.value(metadata !{i8 %kernel_2_read}, i64 0, metadata !2869), !dbg !2867 ; [debug line = 14:99@93:18] [debug variable = kernel[2]]
  call void @llvm.dbg.value(metadata !{i8 %kernel_3_read}, i64 0, metadata !2870), !dbg !2867 ; [debug line = 14:99@93:18] [debug variable = kernel[3]]
  call void @llvm.dbg.value(metadata !{i8 %kernel_4_read}, i64 0, metadata !2871), !dbg !2867 ; [debug line = 14:99@93:18] [debug variable = kernel[4]]
  call void @llvm.dbg.value(metadata !{i8 %kernel_5_read}, i64 0, metadata !2872), !dbg !2867 ; [debug line = 14:99@93:18] [debug variable = kernel[5]]
  call void @llvm.dbg.value(metadata !{i8 %kernel_6_read}, i64 0, metadata !2873), !dbg !2867 ; [debug line = 14:99@93:18] [debug variable = kernel[6]]
  call void @llvm.dbg.value(metadata !{i8 %kernel_7_read}, i64 0, metadata !2874), !dbg !2867 ; [debug line = 14:99@93:18] [debug variable = kernel[7]]
  call void @llvm.dbg.value(metadata !{i8 %kernel_8_read}, i64 0, metadata !2875), !dbg !2867 ; [debug line = 14:99@93:18] [debug variable = kernel[8]]
  call void @llvm.dbg.value(metadata !{i10 %y_assign}, i64 0, metadata !2876), !dbg !2877 ; [debug line = 14:154@93:18] [debug variable = y]
  call void @llvm.dbg.value(metadata !{i10 %x_assign}, i64 0, metadata !2878), !dbg !2879 ; [debug line = 14:161@93:18] [debug variable = x]
  %tmp_3_i_i = icmp ne i10 %x_assign_mid2, 0, !dbg !2802 ; [#uses=3 type=i1] [debug line = 10:3@22:8@93:18]
  %or_cond1_i_i = and i1 %tmp_i_i_mid2, %tmp_3_i_i, !dbg !2802 ; [#uses=1 type=i1] [debug line = 10:3@22:8@93:18]
  %tmp_8_i = zext i8 %kernel_0_read to i32, !dbg !2829 ; [#uses=1 type=i32] [debug line = 24:5@93:18]
  %tmp_9_i = mul i32 %window_0_0_read_as_1, %tmp_8_i, !dbg !2829 ; [#uses=1 type=i32] [debug line = 24:5@93:18]
  %result_2_i = select i1 %or_cond1_i_i, i32 %tmp_9_i, i32 0 ; [#uses=1 type=i32]
  call void @llvm.dbg.value(metadata !{i10 %x_assign}, i64 0, metadata !2880), !dbg !2881 ; [debug line = 8:34@22:8@93:18] [debug variable = x]
  %tmp_8_0_1_i = zext i8 %kernel_1_read to i32, !dbg !2829 ; [#uses=1 type=i32] [debug line = 24:5@93:18]
  %tmp_9_0_1_i = mul i32 %window_0_0_load, %tmp_8_0_1_i, !dbg !2829 ; [#uses=1 type=i32] [debug line = 24:5@93:18]
  %result_3_0_1_i = add i32 %tmp_9_0_1_i, %result_2_i, !dbg !2829 ; [#uses=1 type=i32] [debug line = 24:5@93:18]
  %result_2_0_1_i = select i1 %tmp_i_i_mid2, i32 %result_3_0_1_i, i32 0 ; [#uses=2 type=i32]
  %x_4 = add i10 %x_assign_mid2, 1, !dbg !2807    ; [#uses=4 type=i10] [debug line = 22:8@93:18]
  call void @llvm.dbg.value(metadata !{i10 %x_4}, i64 0, metadata !2880), !dbg !2881 ; [debug line = 8:34@22:8@93:18] [debug variable = x]
  %tmp_9 = call i1 @_ssdm_op_BitSelect.i1.i10.i32(i10 %x_4, i32 9), !dbg !2802 ; [#uses=1 type=i1] [debug line = 10:3@22:8@93:18]
  %rev = xor i1 %tmp_9, true, !dbg !2802          ; [#uses=1 type=i1] [debug line = 10:3@22:8@93:18]
  %p_i2_i = and i1 %tmp_i_i_mid2, %rev, !dbg !2802 ; [#uses=1 type=i1] [debug line = 10:3@22:8@93:18]
  %tmp_8_0_2_i = zext i8 %kernel_2_read to i32, !dbg !2829 ; [#uses=1 type=i32] [debug line = 24:5@93:18]
  %tmp_9_0_2_i = mul i32 %window_0_1_load, %tmp_8_0_2_i, !dbg !2829 ; [#uses=1 type=i32] [debug line = 24:5@93:18]
  %result_3_0_2_i = add i32 %tmp_9_0_2_i, %result_2_0_1_i, !dbg !2829 ; [#uses=1 type=i32] [debug line = 24:5@93:18]
  %result_2_0_2_i = select i1 %p_i2_i, i32 %result_3_0_2_i, i32 %result_2_0_1_i ; [#uses=2 type=i32]
  call void @llvm.dbg.value(metadata !{i10 %y_assign}, i64 0, metadata !2882), !dbg !2883 ; [debug line = 8:27@22:8@93:18] [debug variable = y]
  %tmp_8_1_i = zext i8 %kernel_3_read to i32, !dbg !2829 ; [#uses=1 type=i32] [debug line = 24:5@93:18]
  %tmp_9_1_i = mul i32 %window_1_0_read_as_1, %tmp_8_1_i, !dbg !2829 ; [#uses=1 type=i32] [debug line = 24:5@93:18]
  %result_3_1_i = add i32 %tmp_9_1_i, %result_2_0_2_i, !dbg !2829 ; [#uses=1 type=i32] [debug line = 24:5@93:18]
  %result_2_1_i = select i1 %tmp_3_i_i, i32 %result_3_1_i, i32 %result_2_0_2_i ; [#uses=1 type=i32]
  %tmp_8_1_1_i = zext i8 %kernel_4_read to i32, !dbg !2829 ; [#uses=1 type=i32] [debug line = 24:5@93:18]
  %tmp_9_1_1_i = mul i32 %window_1_0, %tmp_8_1_1_i, !dbg !2829 ; [#uses=1 type=i32] [debug line = 24:5@93:18]
  %result_3_1_1_i = add i32 %tmp_9_1_1_i, %result_2_1_i, !dbg !2829 ; [#uses=2 type=i32] [debug line = 24:5@93:18]
  %tmp_5 = or i10 %y_assign_mid2, %x_4, !dbg !2802 ; [#uses=1 type=i10] [debug line = 10:3@22:8@93:18]
  %tmp_10 = call i1 @_ssdm_op_BitSelect.i1.i10.i32(i10 %tmp_5, i32 9), !dbg !2802 ; [#uses=1 type=i1] [debug line = 10:3@22:8@93:18]
  %tmp_8_1_2_i = zext i8 %kernel_5_read to i32, !dbg !2829 ; [#uses=1 type=i32] [debug line = 24:5@93:18]
  %tmp_9_1_2_i = mul i32 %window_1_1, %tmp_8_1_2_i, !dbg !2829 ; [#uses=1 type=i32] [debug line = 24:5@93:18]
  %result_3_1_2_i = add i32 %tmp_9_1_2_i, %result_3_1_1_i, !dbg !2829 ; [#uses=1 type=i32] [debug line = 24:5@93:18]
  %result_2_1_2_i = select i1 %tmp_10, i32 %result_3_1_1_i, i32 %result_3_1_2_i ; [#uses=3 type=i32]
  call void @llvm.dbg.value(metadata !{i10 %y}, i64 0, metadata !2882), !dbg !2883 ; [debug line = 8:27@22:8@93:18] [debug variable = y]
  %or_cond1_i6_i = and i1 %tmp_3_i_i, %tmp_i2_i_mid2, !dbg !2802 ; [#uses=1 type=i1] [debug line = 10:3@22:8@93:18]
  %tmp_8_2_i = zext i8 %kernel_6_read to i32, !dbg !2829 ; [#uses=1 type=i32] [debug line = 24:5@93:18]
  %tmp_9_2_i = mul i32 %window_2_0_read_as_1, %tmp_8_2_i, !dbg !2829 ; [#uses=1 type=i32] [debug line = 24:5@93:18]
  %result_3_2_i = add i32 %tmp_9_2_i, %result_2_1_2_i, !dbg !2829 ; [#uses=1 type=i32] [debug line = 24:5@93:18]
  %result_2_2_i = select i1 %or_cond1_i6_i, i32 %result_3_2_i, i32 %result_2_1_2_i ; [#uses=1 type=i32]
  %tmp_8_2_1_i = zext i8 %kernel_7_read to i32, !dbg !2829 ; [#uses=1 type=i32] [debug line = 24:5@93:18]
  %tmp_9_2_1_i = mul i32 %window_2_0, %tmp_8_2_1_i, !dbg !2829 ; [#uses=1 type=i32] [debug line = 24:5@93:18]
  %result_3_2_1_i = add i32 %tmp_9_2_1_i, %result_2_2_i, !dbg !2829 ; [#uses=1 type=i32] [debug line = 24:5@93:18]
  %result_2_2_1_i = select i1 %tmp_i2_i_mid2_v, i32 %result_2_1_2_i, i32 %result_3_2_1_i ; [#uses=2 type=i32]
  %tmp_8 = or i10 %y_assign_1_mid2, %x_4, !dbg !2802 ; [#uses=1 type=i10] [debug line = 10:3@22:8@93:18]
  %tmp_11 = call i1 @_ssdm_op_BitSelect.i1.i10.i32(i10 %tmp_8, i32 9), !dbg !2802 ; [#uses=1 type=i1] [debug line = 10:3@22:8@93:18]
  %tmp_8_2_2_i = zext i8 %kernel_8_read to i32, !dbg !2829 ; [#uses=1 type=i32] [debug line = 24:5@93:18]
  %tmp_9_2_2_i = mul i32 %window_2_1, %tmp_8_2_2_i, !dbg !2829 ; [#uses=1 type=i32] [debug line = 24:5@93:18]
  %result_3_2_2_i = add i32 %tmp_9_2_2_i, %result_2_2_1_i, !dbg !2829 ; [#uses=1 type=i32] [debug line = 24:5@93:18]
  %val_out = select i1 %tmp_11, i32 %result_2_2_1_i, i32 %result_3_2_2_i ; [#uses=1 type=i32]
  call void @llvm.dbg.value(metadata !{i32 %val_out}, i64 0, metadata !2884), !dbg !2791 ; [debug line = 93:18] [debug variable = val_out]
  call void @llvm.dbg.value(metadata !{i32 %val_out}, i64 0, metadata !2885), !dbg !2887 ; [debug line = 144:54@96:4] [debug variable = val]
  call void @llvm.dbg.value(metadata !{i32 %val_out}, i64 0, metadata !2889), !dbg !2891 ; [debug line = 144:54@144:75@96:4] [debug variable = val]
  call void @llvm.dbg.value(metadata !{i32 %val_out}, i64 0, metadata !2893), !dbg !2896 ; [debug line = 172:10@96:4] [debug variable = valout.data.V]
  call void @llvm.dbg.value(metadata !{i32* %out_stream_V_data_V}, i64 0, metadata !2899), !dbg !2902 ; [debug line = 144:48@102:4] [debug variable = stream<ap_axis<32, 2, 5, 6> >.V.data.V]
  call void @llvm.dbg.value(metadata !{i4* %out_stream_V_keep_V}, i64 0, metadata !2904), !dbg !2902 ; [debug line = 144:48@102:4] [debug variable = stream<ap_axis<32, 2, 5, 6> >.V.keep.V]
  call void @llvm.dbg.value(metadata !{i4* %out_stream_V_strb_V}, i64 0, metadata !2905), !dbg !2902 ; [debug line = 144:48@102:4] [debug variable = stream<ap_axis<32, 2, 5, 6> >.V.strb.V]
  call void @llvm.dbg.value(metadata !{i2* %out_stream_V_user_V}, i64 0, metadata !2906), !dbg !2902 ; [debug line = 144:48@102:4] [debug variable = stream<ap_axis<32, 2, 5, 6> >.V.user.V]
  call void @llvm.dbg.value(metadata !{i1* %out_stream_V_last_V}, i64 0, metadata !2907), !dbg !2902 ; [debug line = 144:48@102:4] [debug variable = stream<ap_axis<32, 2, 5, 6> >.V.last.V]
  call void @llvm.dbg.value(metadata !{i5* %out_stream_V_id_V}, i64 0, metadata !2908), !dbg !2902 ; [debug line = 144:48@102:4] [debug variable = stream<ap_axis<32, 2, 5, 6> >.V.id.V]
  call void @llvm.dbg.value(metadata !{i6* %out_stream_V_dest_V}, i64 0, metadata !2909), !dbg !2902 ; [debug line = 144:48@102:4] [debug variable = stream<ap_axis<32, 2, 5, 6> >.V.dest.V]
  call void @llvm.dbg.value(metadata !{i32 %val_out}, i64 0, metadata !2910), !dbg !2913 ; [debug line = 145:31@102:4] [debug variable = tmp.data.V]
  call void @_ssdm_op_Write.axis.volatile.i32P.i4P.i4P.i2P.i1P.i5P.i6P(i32* %out_stream_V_data_V, i4* %out_stream_V_keep_V, i4* %out_stream_V_strb_V, i2* %out_stream_V_user_V, i1* %out_stream_V_last_V, i5* %out_stream_V_id_V, i6* %out_stream_V_dest_V, i32 %val_out, i4 1, i4 1, i2 1, i1 undef, i5 0, i6 0), !dbg !2914 ; [debug line = 146:9@102:4]
  %line_buf_0_addr_1 = getelementptr [512 x i32]* %line_buf_0, i32 0, i32 %x5_cast1 ; [#uses=2 type=i32*]
  %window_0_2 = load i32* %line_buf_0_addr_1, align 4, !dbg !2915 ; [#uses=1 type=i32] [debug line = 105:4]
  call void @llvm.dbg.value(metadata !{i32 %window_0_2}, i64 0, metadata !2916), !dbg !2915 ; [debug line = 105:4] [debug variable = right[0]]
  %line_buf_1_addr_1 = getelementptr [512 x i32]* %line_buf_1, i32 0, i32 %x5_cast1 ; [#uses=2 type=i32*]
  %window_1_2 = load i32* %line_buf_1_addr_1, align 4, !dbg !2919 ; [#uses=2 type=i32] [debug line = 108:5]
  store i32 %window_1_2, i32* %line_buf_0_addr_1, align 4, !dbg !2919 ; [debug line = 108:5]
  call void @llvm.dbg.value(metadata !{i32 %window_1_2}, i64 0, metadata !2922), !dbg !2919 ; [debug line = 108:5] [debug variable = right[1]]
  %tmp_12 = call i14 @_ssdm_op_PartSelect.i14.i32.i32.i32(i32 %read_count_1_load, i32 18, i32 31), !dbg !2856 ; [#uses=1 type=i14] [debug line = 113:4]
  %icmp = icmp slt i14 %tmp_12, 1, !dbg !2856     ; [#uses=1 type=i1] [debug line = 113:4]
  store i32 %window_0_2, i32* %window_0_1
  br i1 %icmp, label %4, label %._crit_edge, !dbg !2856 ; [debug line = 113:4]

; <label>:5                                       ; preds = %.preheader71
  ret void, !dbg !2923                            ; [debug line = 137:1]
}

; [#uses=1]
declare i32 @llvm.part.select.i32(i32, i32, i32) nounwind readnone

; [#uses=106]
declare void @llvm.dbg.value(metadata, i64, metadata) nounwind readnone

; [#uses=8]
declare void @llvm.dbg.declare(metadata, metadata) nounwind readnone

; [#uses=1]
define weak void @_ssdm_op_Write.axis.volatile.i32P.i4P.i4P.i2P.i1P.i5P.i6P(i32*, i4*, i4*, i2*, i1*, i5*, i6*, i32, i4, i4, i2, i1, i5, i6) {
entry:
  store i32 %7, i32* %0
  store i4 %8, i4* %1
  store i4 %9, i4* %2
  store i2 %10, i2* %3
  store i1 %11, i1* %4
  store i5 %12, i5* %5
  store i6 %13, i6* %6
  ret void
}

; [#uses=1]
define weak void @_ssdm_op_SpecTopModule(...) {
entry:
  ret void
}

; [#uses=4]
define weak i32 @_ssdm_op_SpecRegionEnd(...) {
entry:
  ret i32 0
}

; [#uses=4]
define weak i32 @_ssdm_op_SpecRegionBegin(...) {
entry:
  ret i32 0
}

; [#uses=4]
define weak void @_ssdm_op_SpecPipeline(...) nounwind {
entry:
  ret void
}

; [#uses=4]
define weak i32 @_ssdm_op_SpecLoopTripCount(...) {
entry:
  ret i32 0
}

; [#uses=4]
define weak void @_ssdm_op_SpecInterface(...) nounwind {
entry:
  ret void
}

; [#uses=23]
define weak void @_ssdm_op_SpecBitsMap(...) {
entry:
  ret void
}

; [#uses=9]
define weak i8 @_ssdm_op_Read.s_axilite.i8P(i8*) {
entry:
  %empty = load i8* %0                            ; [#uses=1 type=i8]
  ret i8 %empty
}

; [#uses=3]
define weak { i32, i4, i4, i2, i1, i5, i6 } @_ssdm_op_Read.axis.volatile.i32P.i4P.i4P.i2P.i1P.i5P.i6P(i32*, i4*, i4*, i2*, i1*, i5*, i6*) {
entry:
  %empty = load i32* %0                           ; [#uses=1 type=i32]
  %empty_16 = load i4* %1                         ; [#uses=1 type=i4]
  %empty_17 = load i4* %2                         ; [#uses=1 type=i4]
  %empty_18 = load i2* %3                         ; [#uses=1 type=i2]
  %empty_19 = load i1* %4                         ; [#uses=1 type=i1]
  %empty_20 = load i5* %5                         ; [#uses=1 type=i5]
  %empty_21 = load i6* %6                         ; [#uses=1 type=i6]
  %mrv_0 = insertvalue { i32, i4, i4, i2, i1, i5, i6 } undef, i32 %empty, 0 ; [#uses=1 type={ i32, i4, i4, i2, i1, i5, i6 }]
  %mrv1 = insertvalue { i32, i4, i4, i2, i1, i5, i6 } %mrv_0, i4 %empty_16, 1 ; [#uses=1 type={ i32, i4, i4, i2, i1, i5, i6 }]
  %mrv2 = insertvalue { i32, i4, i4, i2, i1, i5, i6 } %mrv1, i4 %empty_17, 2 ; [#uses=1 type={ i32, i4, i4, i2, i1, i5, i6 }]
  %mrv3 = insertvalue { i32, i4, i4, i2, i1, i5, i6 } %mrv2, i2 %empty_18, 3 ; [#uses=1 type={ i32, i4, i4, i2, i1, i5, i6 }]
  %mrv4 = insertvalue { i32, i4, i4, i2, i1, i5, i6 } %mrv3, i1 %empty_19, 4 ; [#uses=1 type={ i32, i4, i4, i2, i1, i5, i6 }]
  %mrv5 = insertvalue { i32, i4, i4, i2, i1, i5, i6 } %mrv4, i5 %empty_20, 5 ; [#uses=1 type={ i32, i4, i4, i2, i1, i5, i6 }]
  %mrv6 = insertvalue { i32, i4, i4, i2, i1, i5, i6 } %mrv5, i6 %empty_21, 6 ; [#uses=1 type={ i32, i4, i4, i2, i1, i5, i6 }]
  ret { i32, i4, i4, i2, i1, i5, i6 } %mrv6
}

; [#uses=1]
define weak i14 @_ssdm_op_PartSelect.i14.i32.i32.i32(i32, i32, i32) nounwind readnone {
entry:
  %empty = call i32 @llvm.part.select.i32(i32 %0, i32 %1, i32 %2) ; [#uses=1 type=i32]
  %empty_22 = trunc i32 %empty to i14             ; [#uses=1 type=i14]
  ret i14 %empty_22
}

; [#uses=0]
declare i1 @_ssdm_op_PartSelect.i1.i2.i32.i32(i2, i32, i32) nounwind readnone

; [#uses=5]
define weak i1 @_ssdm_op_BitSelect.i1.i10.i32(i10, i32) nounwind readnone {
entry:
  %empty = trunc i32 %1 to i10                    ; [#uses=1 type=i10]
  %empty_23 = shl i10 1, %empty                   ; [#uses=1 type=i10]
  %empty_24 = and i10 %0, %empty_23               ; [#uses=1 type=i10]
  %empty_25 = icmp ne i10 %empty_24, 0            ; [#uses=1 type=i1]
  ret i1 %empty_25
}

; [#uses=1]
declare void @_GLOBAL__I_a() nounwind

!opencl.kernels = !{!0, !7, !13, !13, !16, !16, !22, !13, !13, !16, !16, !25, !13, !13, !16, !16, !27, !13, !13, !16, !16, !29, !13, !13, !16, !16, !31, !16, !16, !33, !39, !16, !16, !16, !16, !16, !16, !16, !16, !16, !16, !16, !16, !16, !16, !16, !16}
!hls.encrypted.func = !{}
!llvm.map.gv = !{!45}

!0 = metadata !{null, metadata !1, metadata !2, metadata !3, metadata !4, metadata !5, metadata !6}
!1 = metadata !{metadata !"kernel_arg_addr_space", i32 0, i32 0, i32 1}
!2 = metadata !{metadata !"kernel_arg_access_qual", metadata !"none", metadata !"none", metadata !"none"}
!3 = metadata !{metadata !"kernel_arg_type", metadata !"hls::stream<uint32axis_t> &", metadata !"hls::stream<uint32axis_t> &", metadata !"uint8_t*"}
!4 = metadata !{metadata !"kernel_arg_type_qual", metadata !"", metadata !"", metadata !""}
!5 = metadata !{metadata !"kernel_arg_name", metadata !"in_stream", metadata !"out_stream", metadata !"kernel"}
!6 = metadata !{metadata !"reqd_work_group_size", i32 1, i32 1, i32 1}
!7 = metadata !{null, metadata !8, metadata !9, metadata !10, metadata !11, metadata !12, metadata !6}
!8 = metadata !{metadata !"kernel_arg_addr_space", i32 0}
!9 = metadata !{metadata !"kernel_arg_access_qual", metadata !"none"}
!10 = metadata !{metadata !"kernel_arg_type", metadata !"const struct ap_axis<32, 2, 5, 6> &"}
!11 = metadata !{metadata !"kernel_arg_type_qual", metadata !""}
!12 = metadata !{metadata !"kernel_arg_name", metadata !"din"}
!13 = metadata !{null, metadata !8, metadata !9, metadata !14, metadata !11, metadata !15, metadata !6}
!14 = metadata !{metadata !"kernel_arg_type", metadata !"int"}
!15 = metadata !{metadata !"kernel_arg_name", metadata !"val"}
!16 = metadata !{null, metadata !17, metadata !18, metadata !19, metadata !20, metadata !21, metadata !6}
!17 = metadata !{metadata !"kernel_arg_addr_space"}
!18 = metadata !{metadata !"kernel_arg_access_qual"}
!19 = metadata !{metadata !"kernel_arg_type"}
!20 = metadata !{metadata !"kernel_arg_type_qual"}
!21 = metadata !{metadata !"kernel_arg_name"}
!22 = metadata !{null, metadata !8, metadata !9, metadata !23, metadata !11, metadata !24, metadata !6}
!23 = metadata !{metadata !"kernel_arg_type", metadata !"const ap_uint<6> &"}
!24 = metadata !{metadata !"kernel_arg_name", metadata !"op2"}
!25 = metadata !{null, metadata !8, metadata !9, metadata !26, metadata !11, metadata !24, metadata !6}
!26 = metadata !{metadata !"kernel_arg_type", metadata !"const ap_uint<5> &"}
!27 = metadata !{null, metadata !8, metadata !9, metadata !28, metadata !11, metadata !24, metadata !6}
!28 = metadata !{metadata !"kernel_arg_type", metadata !"const ap_uint<2> &"}
!29 = metadata !{null, metadata !8, metadata !9, metadata !30, metadata !11, metadata !24, metadata !6}
!30 = metadata !{metadata !"kernel_arg_type", metadata !"const ap_uint<4> &"}
!31 = metadata !{null, metadata !8, metadata !9, metadata !32, metadata !11, metadata !24, metadata !6}
!32 = metadata !{metadata !"kernel_arg_type", metadata !"const ap_int<32> &"}
!33 = metadata !{null, metadata !34, metadata !35, metadata !36, metadata !37, metadata !38, metadata !6}
!34 = metadata !{metadata !"kernel_arg_addr_space", i32 1, i32 1, i32 0, i32 0}
!35 = metadata !{metadata !"kernel_arg_access_qual", metadata !"none", metadata !"none", metadata !"none", metadata !"none"}
!36 = metadata !{metadata !"kernel_arg_type", metadata !"uint32_t [3]*", metadata !"uint8_t*", metadata !"int", metadata !"int"}
!37 = metadata !{metadata !"kernel_arg_type_qual", metadata !"", metadata !"", metadata !"", metadata !""}
!38 = metadata !{metadata !"kernel_arg_name", metadata !"window", metadata !"kernel", metadata !"y", metadata !"x"}
!39 = metadata !{null, metadata !40, metadata !41, metadata !42, metadata !43, metadata !44, metadata !6}
!40 = metadata !{metadata !"kernel_arg_addr_space", i32 0, i32 0}
!41 = metadata !{metadata !"kernel_arg_access_qual", metadata !"none", metadata !"none"}
!42 = metadata !{metadata !"kernel_arg_type", metadata !"int", metadata !"int"}
!43 = metadata !{metadata !"kernel_arg_type_qual", metadata !"", metadata !""}
!44 = metadata !{metadata !"kernel_arg_name", metadata !"y", metadata !"x"}
!45 = metadata !{metadata !46, [1 x i32]* @llvm_global_ctors_0}
!46 = metadata !{metadata !47}
!47 = metadata !{i32 0, i32 31, metadata !48}
!48 = metadata !{metadata !49}
!49 = metadata !{metadata !"llvm.global_ctors.0", metadata !50, metadata !"", i32 0, i32 31}
!50 = metadata !{metadata !51}
!51 = metadata !{i32 0, i32 0, i32 1}
!52 = metadata !{metadata !53}
!53 = metadata !{i32 0, i32 7, metadata !54}
!54 = metadata !{metadata !55}
!55 = metadata !{metadata !"kernel", metadata !56, metadata !"unsigned char", i32 0, i32 7}
!56 = metadata !{metadata !57}
!57 = metadata !{i32 8, i32 8, i32 2}
!58 = metadata !{metadata !59}
!59 = metadata !{i32 0, i32 7, metadata !60}
!60 = metadata !{metadata !61}
!61 = metadata !{metadata !"kernel", metadata !62, metadata !"unsigned char", i32 0, i32 7}
!62 = metadata !{metadata !63}
!63 = metadata !{i32 7, i32 7, i32 2}
!64 = metadata !{metadata !65}
!65 = metadata !{i32 0, i32 7, metadata !66}
!66 = metadata !{metadata !67}
!67 = metadata !{metadata !"kernel", metadata !68, metadata !"unsigned char", i32 0, i32 7}
!68 = metadata !{metadata !69}
!69 = metadata !{i32 6, i32 6, i32 2}
!70 = metadata !{metadata !71}
!71 = metadata !{i32 0, i32 7, metadata !72}
!72 = metadata !{metadata !73}
!73 = metadata !{metadata !"kernel", metadata !74, metadata !"unsigned char", i32 0, i32 7}
!74 = metadata !{metadata !75}
!75 = metadata !{i32 5, i32 5, i32 2}
!76 = metadata !{metadata !77}
!77 = metadata !{i32 0, i32 7, metadata !78}
!78 = metadata !{metadata !79}
!79 = metadata !{metadata !"kernel", metadata !80, metadata !"unsigned char", i32 0, i32 7}
!80 = metadata !{metadata !81}
!81 = metadata !{i32 4, i32 4, i32 2}
!82 = metadata !{metadata !83}
!83 = metadata !{i32 0, i32 7, metadata !84}
!84 = metadata !{metadata !85}
!85 = metadata !{metadata !"kernel", metadata !86, metadata !"unsigned char", i32 0, i32 7}
!86 = metadata !{metadata !87}
!87 = metadata !{i32 3, i32 3, i32 2}
!88 = metadata !{metadata !89}
!89 = metadata !{i32 0, i32 7, metadata !90}
!90 = metadata !{metadata !91}
!91 = metadata !{metadata !"kernel", metadata !92, metadata !"unsigned char", i32 0, i32 7}
!92 = metadata !{metadata !93}
!93 = metadata !{i32 2, i32 2, i32 2}
!94 = metadata !{metadata !95}
!95 = metadata !{i32 0, i32 7, metadata !96}
!96 = metadata !{metadata !97}
!97 = metadata !{metadata !"kernel", metadata !98, metadata !"unsigned char", i32 0, i32 7}
!98 = metadata !{metadata !99}
!99 = metadata !{i32 1, i32 1, i32 2}
!100 = metadata !{metadata !101}
!101 = metadata !{i32 0, i32 7, metadata !102}
!102 = metadata !{metadata !103}
!103 = metadata !{metadata !"kernel", metadata !104, metadata !"unsigned char", i32 0, i32 7}
!104 = metadata !{metadata !105}
!105 = metadata !{i32 0, i32 0, i32 2}
!106 = metadata !{metadata !107}
!107 = metadata !{i32 0, i32 31, metadata !108}
!108 = metadata !{metadata !109}
!109 = metadata !{metadata !"in_stream.V.data.V", metadata !50, metadata !"int32", i32 0, i32 31}
!110 = metadata !{metadata !111}
!111 = metadata !{i32 0, i32 3, metadata !112}
!112 = metadata !{metadata !113}
!113 = metadata !{metadata !"in_stream.V.keep.V", metadata !50, metadata !"uint4", i32 0, i32 3}
!114 = metadata !{metadata !115}
!115 = metadata !{i32 0, i32 3, metadata !116}
!116 = metadata !{metadata !117}
!117 = metadata !{metadata !"in_stream.V.strb.V", metadata !50, metadata !"uint4", i32 0, i32 3}
!118 = metadata !{metadata !119}
!119 = metadata !{i32 0, i32 1, metadata !120}
!120 = metadata !{metadata !121}
!121 = metadata !{metadata !"in_stream.V.user.V", metadata !50, metadata !"uint2", i32 0, i32 1}
!122 = metadata !{metadata !123}
!123 = metadata !{i32 0, i32 0, metadata !124}
!124 = metadata !{metadata !125}
!125 = metadata !{metadata !"in_stream.V.last.V", metadata !50, metadata !"uint1", i32 0, i32 0}
!126 = metadata !{metadata !127}
!127 = metadata !{i32 0, i32 4, metadata !128}
!128 = metadata !{metadata !129}
!129 = metadata !{metadata !"in_stream.V.id.V", metadata !50, metadata !"uint5", i32 0, i32 4}
!130 = metadata !{metadata !131}
!131 = metadata !{i32 0, i32 5, metadata !132}
!132 = metadata !{metadata !133}
!133 = metadata !{metadata !"in_stream.V.dest.V", metadata !50, metadata !"uint6", i32 0, i32 5}
!134 = metadata !{metadata !135}
!135 = metadata !{i32 0, i32 31, metadata !136}
!136 = metadata !{metadata !137}
!137 = metadata !{metadata !"out_stream.V.data.V", metadata !50, metadata !"int32", i32 0, i32 31}
!138 = metadata !{metadata !139}
!139 = metadata !{i32 0, i32 3, metadata !140}
!140 = metadata !{metadata !141}
!141 = metadata !{metadata !"out_stream.V.keep.V", metadata !50, metadata !"uint4", i32 0, i32 3}
!142 = metadata !{metadata !143}
!143 = metadata !{i32 0, i32 3, metadata !144}
!144 = metadata !{metadata !145}
!145 = metadata !{metadata !"out_stream.V.strb.V", metadata !50, metadata !"uint4", i32 0, i32 3}
!146 = metadata !{metadata !147}
!147 = metadata !{i32 0, i32 1, metadata !148}
!148 = metadata !{metadata !149}
!149 = metadata !{metadata !"out_stream.V.user.V", metadata !50, metadata !"uint2", i32 0, i32 1}
!150 = metadata !{metadata !151}
!151 = metadata !{i32 0, i32 0, metadata !152}
!152 = metadata !{metadata !153}
!153 = metadata !{metadata !"out_stream.V.last.V", metadata !50, metadata !"uint1", i32 0, i32 0}
!154 = metadata !{metadata !155}
!155 = metadata !{i32 0, i32 4, metadata !156}
!156 = metadata !{metadata !157}
!157 = metadata !{metadata !"out_stream.V.id.V", metadata !50, metadata !"uint5", i32 0, i32 4}
!158 = metadata !{metadata !159}
!159 = metadata !{i32 0, i32 5, metadata !160}
!160 = metadata !{metadata !161}
!161 = metadata !{metadata !"out_stream.V.dest.V", metadata !50, metadata !"uint6", i32 0, i32 5}
!162 = metadata !{i32 790531, metadata !163, metadata !"in_stream.V.data.V", null, i32 33, metadata !2623, i32 0, i32 0} ; [ DW_TAG_arg_variable_field ]
!163 = metadata !{i32 786689, metadata !164, metadata !"in_stream", metadata !165, i32 16777249, metadata !168, i32 0, i32 0} ; [ DW_TAG_arg_variable ]
!164 = metadata !{i32 786478, i32 0, metadata !165, metadata !"my_filter_buffer", metadata !"my_filter_buffer", metadata !"_Z16my_filter_bufferRN3hls6streamI7ap_axisILi32ELi2ELi5ELi6EEEES4_Ph", metadata !165, i32 33, metadata !166, i1 false, i1 true, i32 0, i32 0, null, i32 256, i1 false, null, null, null, metadata !195, i32 36} ; [ DW_TAG_subprogram ]
!165 = metadata !{i32 786473, metadata !"sliding_window_2/sliding_window.cpp", metadata !"D:\5CSchool\5CProject\5Crepo\5CHLS", null} ; [ DW_TAG_file_type ]
!166 = metadata !{i32 786453, i32 0, metadata !"", i32 0, i32 0, i64 0, i64 0, i64 0, i32 0, null, metadata !167, i32 0, i32 0} ; [ DW_TAG_subroutine_type ]
!167 = metadata !{null, metadata !168, metadata !168, metadata !2621}
!168 = metadata !{i32 786448, null, null, null, i32 0, i64 0, i64 0, i64 0, i32 0, metadata !169} ; [ DW_TAG_reference_type ]
!169 = metadata !{i32 786434, metadata !170, metadata !"stream<ap_axis<32, 2, 5, 6> >", metadata !171, i32 79, i64 96, i64 32, i32 0, i32 0, null, metadata !172, i32 0, null, metadata !2619} ; [ DW_TAG_class_type ]
!170 = metadata !{i32 786489, null, metadata !"hls", metadata !171, i32 69} ; [ DW_TAG_namespace ]
!171 = metadata !{i32 786473, metadata !"C:/Xilinx/Vivado_HLS/2016.4/common/technology/autopilot\5Chls_stream.h", metadata !"D:\5CSchool\5CProject\5Crepo\5CHLS", null} ; [ DW_TAG_file_type ]
!172 = metadata !{metadata !173, metadata !2578, metadata !2582, metadata !2585, metadata !2590, metadata !2593, metadata !2597, metadata !2600, metadata !2604, metadata !2605, metadata !2606, metadata !2609, metadata !2612, metadata !2613, metadata !2616}
!173 = metadata !{i32 786445, metadata !169, metadata !"V", metadata !171, i32 163, i64 96, i64 32, i64 0, i32 0, metadata !174} ; [ DW_TAG_member ]
!174 = metadata !{i32 786434, null, metadata !"ap_axis<32, 2, 5, 6>", metadata !175, i32 89, i64 96, i64 32, i32 0, i32 0, null, metadata !176, i32 0, null, metadata !2573} ; [ DW_TAG_class_type ]
!175 = metadata !{i32 786473, metadata !"C:/Xilinx/Vivado_HLS/2016.4/common/technology/autopilot\5Cap_axi_sdata.h", metadata !"D:\5CSchool\5CProject\5Crepo\5CHLS", null} ; [ DW_TAG_file_type ]
!176 = metadata !{metadata !177, metadata !837, metadata !1180, metadata !1181, metadata !1553, metadata !1888, metadata !2225, metadata !2563, metadata !2567, metadata !2572}
!177 = metadata !{i32 786445, metadata !174, metadata !"data", metadata !175, i32 90, i64 32, i64 32, i64 0, i32 0, metadata !178} ; [ DW_TAG_member ]
!178 = metadata !{i32 786434, null, metadata !"ap_int<32>", metadata !179, i32 73, i64 32, i64 32, i32 0, i32 0, null, metadata !180, i32 0, null, metadata !836} ; [ DW_TAG_class_type ]
!179 = metadata !{i32 786473, metadata !"C:/Xilinx/Vivado_HLS/2016.4/common/technology/autopilot/ap_int.h", metadata !"D:\5CSchool\5CProject\5Crepo\5CHLS", null} ; [ DW_TAG_file_type ]
!180 = metadata !{metadata !181, metadata !756, metadata !760, metadata !766, metadata !772, metadata !775, metadata !778, metadata !781, metadata !784, metadata !787, metadata !790, metadata !793, metadata !796, metadata !799, metadata !802, metadata !805, metadata !808, metadata !811, metadata !814, metadata !817, metadata !820, metadata !824, metadata !827, metadata !831, metadata !834, metadata !835}
!181 = metadata !{i32 786460, metadata !178, null, metadata !179, i32 0, i64 0, i64 0, i64 0, i32 0, metadata !182} ; [ DW_TAG_inheritance ]
!182 = metadata !{i32 786434, null, metadata !"ap_int_base<32, true, true>", metadata !183, i32 1397, i64 32, i64 32, i32 0, i32 0, null, metadata !184, i32 0, null, metadata !754} ; [ DW_TAG_class_type ]
!183 = metadata !{i32 786473, metadata !"C:/Xilinx/Vivado_HLS/2016.4/common/technology/autopilot/ap_int_syn.h", metadata !"D:\5CSchool\5CProject\5Crepo\5CHLS", null} ; [ DW_TAG_file_type ]
!184 = metadata !{metadata !185, metadata !207, metadata !211, metadata !219, metadata !225, metadata !228, metadata !232, metadata !236, metadata !240, metadata !244, metadata !247, metadata !251, metadata !255, metadata !259, metadata !264, metadata !269, metadata !273, metadata !277, metadata !283, metadata !286, metadata !290, metadata !293, metadata !296, metadata !297, metadata !301, metadata !304, metadata !307, metadata !310, metadata !313, metadata !316, metadata !319, metadata !322, metadata !325, metadata !328, metadata !331, metadata !334, metadata !344, metadata !347, metadata !350, metadata !353, metadata !356, metadata !359, metadata !362, metadata !365, metadata !368, metadata !371, metadata !374, metadata !377, metadata !380, metadata !381, metadata !385, metadata !388, metadata !389, metadata !390, metadata !391, metadata !392, metadata !393, metadata !396, metadata !397, metadata !400, metadata !401, metadata !402, metadata !403, metadata !404, metadata !405, metadata !408, metadata !409, metadata !410, metadata !413, metadata !414, metadata !417, metadata !418, metadata !714, metadata !718, metadata !719, metadata !722, metadata !723, metadata !727, metadata !728, metadata !729, metadata !730, metadata !733, metadata !734, metadata !735, metadata !736, metadata !737, metadata !738, metadata !739, metadata !740, metadata !741, metadata !742, metadata !743, metadata !744, metadata !747, metadata !750, metadata !753}
!185 = metadata !{i32 786460, metadata !182, null, metadata !183, i32 0, i64 0, i64 0, i64 0, i32 0, metadata !186} ; [ DW_TAG_inheritance ]
!186 = metadata !{i32 786434, null, metadata !"ssdm_int<32 + 1024 * 0, true>", metadata !187, i32 34, i64 32, i64 32, i32 0, i32 0, null, metadata !188, i32 0, null, metadata !202} ; [ DW_TAG_class_type ]
!187 = metadata !{i32 786473, metadata !"C:/Xilinx/Vivado_HLS/2016.4/common/technology/autopilot/etc/autopilot_dt.def", metadata !"D:\5CSchool\5CProject\5Crepo\5CHLS", null} ; [ DW_TAG_file_type ]
!188 = metadata !{metadata !189, metadata !191, metadata !197}
!189 = metadata !{i32 786445, metadata !186, metadata !"V", metadata !187, i32 34, i64 32, i64 32, i64 0, i32 0, metadata !190} ; [ DW_TAG_member ]
!190 = metadata !{i32 786468, null, metadata !"int32", null, i32 0, i64 32, i64 32, i64 0, i32 0, i32 5} ; [ DW_TAG_base_type ]
!191 = metadata !{i32 786478, i32 0, metadata !186, metadata !"ssdm_int", metadata !"ssdm_int", metadata !"", metadata !187, i32 34, metadata !192, i1 false, i1 false, i32 0, i32 0, null, i32 256, i1 false, null, null, i32 0, metadata !195, i32 34} ; [ DW_TAG_subprogram ]
!192 = metadata !{i32 786453, i32 0, metadata !"", i32 0, i32 0, i64 0, i64 0, i64 0, i32 0, null, metadata !193, i32 0, i32 0} ; [ DW_TAG_subroutine_type ]
!193 = metadata !{null, metadata !194}
!194 = metadata !{i32 786447, i32 0, metadata !"", i32 0, i32 0, i64 32, i64 32, i64 0, i32 64, metadata !186} ; [ DW_TAG_pointer_type ]
!195 = metadata !{metadata !196}
!196 = metadata !{i32 786468}                     ; [ DW_TAG_base_type ]
!197 = metadata !{i32 786478, i32 0, metadata !186, metadata !"ssdm_int", metadata !"ssdm_int", metadata !"", metadata !187, i32 34, metadata !198, i1 false, i1 false, i32 0, i32 0, null, i32 320, i1 false, null, null, i32 0, metadata !195, i32 34} ; [ DW_TAG_subprogram ]
!198 = metadata !{i32 786453, i32 0, metadata !"", i32 0, i32 0, i64 0, i64 0, i64 0, i32 0, null, metadata !199, i32 0, i32 0} ; [ DW_TAG_subroutine_type ]
!199 = metadata !{null, metadata !194, metadata !200}
!200 = metadata !{i32 786448, null, null, null, i32 0, i64 0, i64 0, i64 0, i32 0, metadata !201} ; [ DW_TAG_reference_type ]
!201 = metadata !{i32 786470, null, metadata !"", null, i32 0, i64 0, i64 0, i64 0, i32 0, metadata !186} ; [ DW_TAG_const_type ]
!202 = metadata !{metadata !203, metadata !205}
!203 = metadata !{i32 786480, null, metadata !"_AP_N", metadata !204, i64 32, null, i32 0, i32 0} ; [ DW_TAG_template_value_parameter ]
!204 = metadata !{i32 786468, null, metadata !"int", null, i32 0, i64 32, i64 32, i64 0, i32 0, i32 5} ; [ DW_TAG_base_type ]
!205 = metadata !{i32 786480, null, metadata !"_AP_S", metadata !206, i64 1, null, i32 0, i32 0} ; [ DW_TAG_template_value_parameter ]
!206 = metadata !{i32 786468, null, metadata !"bool", null, i32 0, i64 8, i64 8, i64 0, i32 0, i32 2} ; [ DW_TAG_base_type ]
!207 = metadata !{i32 786478, i32 0, metadata !182, metadata !"ap_int_base", metadata !"ap_int_base", metadata !"", metadata !183, i32 1438, metadata !208, i1 false, i1 false, i32 0, i32 0, null, i32 256, i1 false, null, null, i32 0, metadata !195, i32 1438} ; [ DW_TAG_subprogram ]
!208 = metadata !{i32 786453, i32 0, metadata !"", i32 0, i32 0, i64 0, i64 0, i64 0, i32 0, null, metadata !209, i32 0, i32 0} ; [ DW_TAG_subroutine_type ]
!209 = metadata !{null, metadata !210}
!210 = metadata !{i32 786447, i32 0, metadata !"", i32 0, i32 0, i64 32, i64 32, i64 0, i32 64, metadata !182} ; [ DW_TAG_pointer_type ]
!211 = metadata !{i32 786478, i32 0, metadata !182, metadata !"ap_int_base<32, true>", metadata !"ap_int_base<32, true>", metadata !"", metadata !183, i32 1450, metadata !212, i1 false, i1 false, i32 0, i32 0, null, i32 256, i1 false, null, metadata !216, i32 0, metadata !195, i32 1450} ; [ DW_TAG_subprogram ]
!212 = metadata !{i32 786453, i32 0, metadata !"", i32 0, i32 0, i64 0, i64 0, i64 0, i32 0, null, metadata !213, i32 0, i32 0} ; [ DW_TAG_subroutine_type ]
!213 = metadata !{null, metadata !210, metadata !214}
!214 = metadata !{i32 786448, null, null, null, i32 0, i64 0, i64 0, i64 0, i32 0, metadata !215} ; [ DW_TAG_reference_type ]
!215 = metadata !{i32 786470, null, metadata !"", null, i32 0, i64 0, i64 0, i64 0, i32 0, metadata !182} ; [ DW_TAG_const_type ]
!216 = metadata !{metadata !217, metadata !218}
!217 = metadata !{i32 786480, null, metadata !"_AP_W2", metadata !204, i64 32, null, i32 0, i32 0} ; [ DW_TAG_template_value_parameter ]
!218 = metadata !{i32 786480, null, metadata !"_AP_S2", metadata !206, i64 1, null, i32 0, i32 0} ; [ DW_TAG_template_value_parameter ]
!219 = metadata !{i32 786478, i32 0, metadata !182, metadata !"ap_int_base<32, true>", metadata !"ap_int_base<32, true>", metadata !"", metadata !183, i32 1453, metadata !220, i1 false, i1 false, i32 0, i32 0, null, i32 256, i1 false, null, metadata !216, i32 0, metadata !195, i32 1453} ; [ DW_TAG_subprogram ]
!220 = metadata !{i32 786453, i32 0, metadata !"", i32 0, i32 0, i64 0, i64 0, i64 0, i32 0, null, metadata !221, i32 0, i32 0} ; [ DW_TAG_subroutine_type ]
!221 = metadata !{null, metadata !210, metadata !222}
!222 = metadata !{i32 786448, null, null, null, i32 0, i64 0, i64 0, i64 0, i32 0, metadata !223} ; [ DW_TAG_reference_type ]
!223 = metadata !{i32 786470, null, metadata !"", null, i32 0, i64 0, i64 0, i64 0, i32 0, metadata !224} ; [ DW_TAG_const_type ]
!224 = metadata !{i32 786485, null, metadata !"", null, i32 0, i64 0, i64 0, i64 0, i32 0, metadata !182} ; [ DW_TAG_volatile_type ]
!225 = metadata !{i32 786478, i32 0, metadata !182, metadata !"ap_int_base", metadata !"ap_int_base", metadata !"", metadata !183, i32 1460, metadata !226, i1 false, i1 false, i32 0, i32 0, null, i32 384, i1 false, null, null, i32 0, metadata !195, i32 1460} ; [ DW_TAG_subprogram ]
!226 = metadata !{i32 786453, i32 0, metadata !"", i32 0, i32 0, i64 0, i64 0, i64 0, i32 0, null, metadata !227, i32 0, i32 0} ; [ DW_TAG_subroutine_type ]
!227 = metadata !{null, metadata !210, metadata !206}
!228 = metadata !{i32 786478, i32 0, metadata !182, metadata !"ap_int_base", metadata !"ap_int_base", metadata !"", metadata !183, i32 1461, metadata !229, i1 false, i1 false, i32 0, i32 0, null, i32 384, i1 false, null, null, i32 0, metadata !195, i32 1461} ; [ DW_TAG_subprogram ]
!229 = metadata !{i32 786453, i32 0, metadata !"", i32 0, i32 0, i64 0, i64 0, i64 0, i32 0, null, metadata !230, i32 0, i32 0} ; [ DW_TAG_subroutine_type ]
!230 = metadata !{null, metadata !210, metadata !231}
!231 = metadata !{i32 786468, null, metadata !"signed char", null, i32 0, i64 8, i64 8, i64 0, i32 0, i32 6} ; [ DW_TAG_base_type ]
!232 = metadata !{i32 786478, i32 0, metadata !182, metadata !"ap_int_base", metadata !"ap_int_base", metadata !"", metadata !183, i32 1462, metadata !233, i1 false, i1 false, i32 0, i32 0, null, i32 384, i1 false, null, null, i32 0, metadata !195, i32 1462} ; [ DW_TAG_subprogram ]
!233 = metadata !{i32 786453, i32 0, metadata !"", i32 0, i32 0, i64 0, i64 0, i64 0, i32 0, null, metadata !234, i32 0, i32 0} ; [ DW_TAG_subroutine_type ]
!234 = metadata !{null, metadata !210, metadata !235}
!235 = metadata !{i32 786468, null, metadata !"unsigned char", null, i32 0, i64 8, i64 8, i64 0, i32 0, i32 8} ; [ DW_TAG_base_type ]
!236 = metadata !{i32 786478, i32 0, metadata !182, metadata !"ap_int_base", metadata !"ap_int_base", metadata !"", metadata !183, i32 1463, metadata !237, i1 false, i1 false, i32 0, i32 0, null, i32 384, i1 false, null, null, i32 0, metadata !195, i32 1463} ; [ DW_TAG_subprogram ]
!237 = metadata !{i32 786453, i32 0, metadata !"", i32 0, i32 0, i64 0, i64 0, i64 0, i32 0, null, metadata !238, i32 0, i32 0} ; [ DW_TAG_subroutine_type ]
!238 = metadata !{null, metadata !210, metadata !239}
!239 = metadata !{i32 786468, null, metadata !"short", null, i32 0, i64 16, i64 16, i64 0, i32 0, i32 5} ; [ DW_TAG_base_type ]
!240 = metadata !{i32 786478, i32 0, metadata !182, metadata !"ap_int_base", metadata !"ap_int_base", metadata !"", metadata !183, i32 1464, metadata !241, i1 false, i1 false, i32 0, i32 0, null, i32 384, i1 false, null, null, i32 0, metadata !195, i32 1464} ; [ DW_TAG_subprogram ]
!241 = metadata !{i32 786453, i32 0, metadata !"", i32 0, i32 0, i64 0, i64 0, i64 0, i32 0, null, metadata !242, i32 0, i32 0} ; [ DW_TAG_subroutine_type ]
!242 = metadata !{null, metadata !210, metadata !243}
!243 = metadata !{i32 786468, null, metadata !"unsigned short", null, i32 0, i64 16, i64 16, i64 0, i32 0, i32 7} ; [ DW_TAG_base_type ]
!244 = metadata !{i32 786478, i32 0, metadata !182, metadata !"ap_int_base", metadata !"ap_int_base", metadata !"", metadata !183, i32 1465, metadata !245, i1 false, i1 false, i32 0, i32 0, null, i32 384, i1 false, null, null, i32 0, metadata !195, i32 1465} ; [ DW_TAG_subprogram ]
!245 = metadata !{i32 786453, i32 0, metadata !"", i32 0, i32 0, i64 0, i64 0, i64 0, i32 0, null, metadata !246, i32 0, i32 0} ; [ DW_TAG_subroutine_type ]
!246 = metadata !{null, metadata !210, metadata !204}
!247 = metadata !{i32 786478, i32 0, metadata !182, metadata !"ap_int_base", metadata !"ap_int_base", metadata !"", metadata !183, i32 1466, metadata !248, i1 false, i1 false, i32 0, i32 0, null, i32 384, i1 false, null, null, i32 0, metadata !195, i32 1466} ; [ DW_TAG_subprogram ]
!248 = metadata !{i32 786453, i32 0, metadata !"", i32 0, i32 0, i64 0, i64 0, i64 0, i32 0, null, metadata !249, i32 0, i32 0} ; [ DW_TAG_subroutine_type ]
!249 = metadata !{null, metadata !210, metadata !250}
!250 = metadata !{i32 786468, null, metadata !"unsigned int", null, i32 0, i64 32, i64 32, i64 0, i32 0, i32 7} ; [ DW_TAG_base_type ]
!251 = metadata !{i32 786478, i32 0, metadata !182, metadata !"ap_int_base", metadata !"ap_int_base", metadata !"", metadata !183, i32 1467, metadata !252, i1 false, i1 false, i32 0, i32 0, null, i32 384, i1 false, null, null, i32 0, metadata !195, i32 1467} ; [ DW_TAG_subprogram ]
!252 = metadata !{i32 786453, i32 0, metadata !"", i32 0, i32 0, i64 0, i64 0, i64 0, i32 0, null, metadata !253, i32 0, i32 0} ; [ DW_TAG_subroutine_type ]
!253 = metadata !{null, metadata !210, metadata !254}
!254 = metadata !{i32 786468, null, metadata !"long int", null, i32 0, i64 32, i64 32, i64 0, i32 0, i32 5} ; [ DW_TAG_base_type ]
!255 = metadata !{i32 786478, i32 0, metadata !182, metadata !"ap_int_base", metadata !"ap_int_base", metadata !"", metadata !183, i32 1468, metadata !256, i1 false, i1 false, i32 0, i32 0, null, i32 384, i1 false, null, null, i32 0, metadata !195, i32 1468} ; [ DW_TAG_subprogram ]
!256 = metadata !{i32 786453, i32 0, metadata !"", i32 0, i32 0, i64 0, i64 0, i64 0, i32 0, null, metadata !257, i32 0, i32 0} ; [ DW_TAG_subroutine_type ]
!257 = metadata !{null, metadata !210, metadata !258}
!258 = metadata !{i32 786468, null, metadata !"long unsigned int", null, i32 0, i64 32, i64 32, i64 0, i32 0, i32 7} ; [ DW_TAG_base_type ]
!259 = metadata !{i32 786478, i32 0, metadata !182, metadata !"ap_int_base", metadata !"ap_int_base", metadata !"", metadata !183, i32 1469, metadata !260, i1 false, i1 false, i32 0, i32 0, null, i32 384, i1 false, null, null, i32 0, metadata !195, i32 1469} ; [ DW_TAG_subprogram ]
!260 = metadata !{i32 786453, i32 0, metadata !"", i32 0, i32 0, i64 0, i64 0, i64 0, i32 0, null, metadata !261, i32 0, i32 0} ; [ DW_TAG_subroutine_type ]
!261 = metadata !{null, metadata !210, metadata !262}
!262 = metadata !{i32 786454, null, metadata !"ap_slong", metadata !183, i32 111, i64 0, i64 0, i64 0, i32 0, metadata !263} ; [ DW_TAG_typedef ]
!263 = metadata !{i32 786468, null, metadata !"long long int", null, i32 0, i64 64, i64 64, i64 0, i32 0, i32 5} ; [ DW_TAG_base_type ]
!264 = metadata !{i32 786478, i32 0, metadata !182, metadata !"ap_int_base", metadata !"ap_int_base", metadata !"", metadata !183, i32 1470, metadata !265, i1 false, i1 false, i32 0, i32 0, null, i32 384, i1 false, null, null, i32 0, metadata !195, i32 1470} ; [ DW_TAG_subprogram ]
!265 = metadata !{i32 786453, i32 0, metadata !"", i32 0, i32 0, i64 0, i64 0, i64 0, i32 0, null, metadata !266, i32 0, i32 0} ; [ DW_TAG_subroutine_type ]
!266 = metadata !{null, metadata !210, metadata !267}
!267 = metadata !{i32 786454, null, metadata !"ap_ulong", metadata !183, i32 110, i64 0, i64 0, i64 0, i32 0, metadata !268} ; [ DW_TAG_typedef ]
!268 = metadata !{i32 786468, null, metadata !"long long unsigned int", null, i32 0, i64 64, i64 64, i64 0, i32 0, i32 7} ; [ DW_TAG_base_type ]
!269 = metadata !{i32 786478, i32 0, metadata !182, metadata !"ap_int_base", metadata !"ap_int_base", metadata !"", metadata !183, i32 1471, metadata !270, i1 false, i1 false, i32 0, i32 0, null, i32 384, i1 false, null, null, i32 0, metadata !195, i32 1471} ; [ DW_TAG_subprogram ]
!270 = metadata !{i32 786453, i32 0, metadata !"", i32 0, i32 0, i64 0, i64 0, i64 0, i32 0, null, metadata !271, i32 0, i32 0} ; [ DW_TAG_subroutine_type ]
!271 = metadata !{null, metadata !210, metadata !272}
!272 = metadata !{i32 786468, null, metadata !"float", null, i32 0, i64 32, i64 32, i64 0, i32 0, i32 4} ; [ DW_TAG_base_type ]
!273 = metadata !{i32 786478, i32 0, metadata !182, metadata !"ap_int_base", metadata !"ap_int_base", metadata !"", metadata !183, i32 1472, metadata !274, i1 false, i1 false, i32 0, i32 0, null, i32 384, i1 false, null, null, i32 0, metadata !195, i32 1472} ; [ DW_TAG_subprogram ]
!274 = metadata !{i32 786453, i32 0, metadata !"", i32 0, i32 0, i64 0, i64 0, i64 0, i32 0, null, metadata !275, i32 0, i32 0} ; [ DW_TAG_subroutine_type ]
!275 = metadata !{null, metadata !210, metadata !276}
!276 = metadata !{i32 786468, null, metadata !"double", null, i32 0, i64 64, i64 64, i64 0, i32 0, i32 4} ; [ DW_TAG_base_type ]
!277 = metadata !{i32 786478, i32 0, metadata !182, metadata !"ap_int_base", metadata !"ap_int_base", metadata !"", metadata !183, i32 1499, metadata !278, i1 false, i1 false, i32 0, i32 0, null, i32 256, i1 false, null, null, i32 0, metadata !195, i32 1499} ; [ DW_TAG_subprogram ]
!278 = metadata !{i32 786453, i32 0, metadata !"", i32 0, i32 0, i64 0, i64 0, i64 0, i32 0, null, metadata !279, i32 0, i32 0} ; [ DW_TAG_subroutine_type ]
!279 = metadata !{null, metadata !210, metadata !280}
!280 = metadata !{i32 786447, null, metadata !"", null, i32 0, i64 32, i64 32, i64 0, i32 0, metadata !281} ; [ DW_TAG_pointer_type ]
!281 = metadata !{i32 786470, null, metadata !"", null, i32 0, i64 0, i64 0, i64 0, i32 0, metadata !282} ; [ DW_TAG_const_type ]
!282 = metadata !{i32 786468, null, metadata !"char", null, i32 0, i64 8, i64 8, i64 0, i32 0, i32 6} ; [ DW_TAG_base_type ]
!283 = metadata !{i32 786478, i32 0, metadata !182, metadata !"ap_int_base", metadata !"ap_int_base", metadata !"", metadata !183, i32 1506, metadata !284, i1 false, i1 false, i32 0, i32 0, null, i32 256, i1 false, null, null, i32 0, metadata !195, i32 1506} ; [ DW_TAG_subprogram ]
!284 = metadata !{i32 786453, i32 0, metadata !"", i32 0, i32 0, i64 0, i64 0, i64 0, i32 0, null, metadata !285, i32 0, i32 0} ; [ DW_TAG_subroutine_type ]
!285 = metadata !{null, metadata !210, metadata !280, metadata !231}
!286 = metadata !{i32 786478, i32 0, metadata !182, metadata !"read", metadata !"read", metadata !"_ZNV11ap_int_baseILi32ELb1ELb1EE4readEv", metadata !183, i32 1527, metadata !287, i1 false, i1 false, i32 0, i32 0, null, i32 256, i1 false, null, null, i32 0, metadata !195, i32 1527} ; [ DW_TAG_subprogram ]
!287 = metadata !{i32 786453, i32 0, metadata !"", i32 0, i32 0, i64 0, i64 0, i64 0, i32 0, null, metadata !288, i32 0, i32 0} ; [ DW_TAG_subroutine_type ]
!288 = metadata !{metadata !182, metadata !289}
!289 = metadata !{i32 786447, i32 0, metadata !"", i32 0, i32 0, i64 32, i64 32, i64 0, i32 64, metadata !224} ; [ DW_TAG_pointer_type ]
!290 = metadata !{i32 786478, i32 0, metadata !182, metadata !"write", metadata !"write", metadata !"_ZNV11ap_int_baseILi32ELb1ELb1EE5writeERKS0_", metadata !183, i32 1533, metadata !291, i1 false, i1 false, i32 0, i32 0, null, i32 256, i1 false, null, null, i32 0, metadata !195, i32 1533} ; [ DW_TAG_subprogram ]
!291 = metadata !{i32 786453, i32 0, metadata !"", i32 0, i32 0, i64 0, i64 0, i64 0, i32 0, null, metadata !292, i32 0, i32 0} ; [ DW_TAG_subroutine_type ]
!292 = metadata !{null, metadata !289, metadata !214}
!293 = metadata !{i32 786478, i32 0, metadata !182, metadata !"operator=", metadata !"operator=", metadata !"_ZNV11ap_int_baseILi32ELb1ELb1EEaSERVKS0_", metadata !183, i32 1545, metadata !294, i1 false, i1 false, i32 0, i32 0, null, i32 256, i1 false, null, null, i32 0, metadata !195, i32 1545} ; [ DW_TAG_subprogram ]
!294 = metadata !{i32 786453, i32 0, metadata !"", i32 0, i32 0, i64 0, i64 0, i64 0, i32 0, null, metadata !295, i32 0, i32 0} ; [ DW_TAG_subroutine_type ]
!295 = metadata !{null, metadata !289, metadata !222}
!296 = metadata !{i32 786478, i32 0, metadata !182, metadata !"operator=", metadata !"operator=", metadata !"_ZNV11ap_int_baseILi32ELb1ELb1EEaSERKS0_", metadata !183, i32 1554, metadata !291, i1 false, i1 false, i32 0, i32 0, null, i32 256, i1 false, null, null, i32 0, metadata !195, i32 1554} ; [ DW_TAG_subprogram ]
!297 = metadata !{i32 786478, i32 0, metadata !182, metadata !"operator=", metadata !"operator=", metadata !"_ZN11ap_int_baseILi32ELb1ELb1EEaSERVKS0_", metadata !183, i32 1577, metadata !298, i1 false, i1 false, i32 0, i32 0, null, i32 256, i1 false, null, null, i32 0, metadata !195, i32 1577} ; [ DW_TAG_subprogram ]
!298 = metadata !{i32 786453, i32 0, metadata !"", i32 0, i32 0, i64 0, i64 0, i64 0, i32 0, null, metadata !299, i32 0, i32 0} ; [ DW_TAG_subroutine_type ]
!299 = metadata !{metadata !300, metadata !210, metadata !222}
!300 = metadata !{i32 786448, null, null, null, i32 0, i64 0, i64 0, i64 0, i32 0, metadata !182} ; [ DW_TAG_reference_type ]
!301 = metadata !{i32 786478, i32 0, metadata !182, metadata !"operator=", metadata !"operator=", metadata !"_ZN11ap_int_baseILi32ELb1ELb1EEaSERKS0_", metadata !183, i32 1582, metadata !302, i1 false, i1 false, i32 0, i32 0, null, i32 256, i1 false, null, null, i32 0, metadata !195, i32 1582} ; [ DW_TAG_subprogram ]
!302 = metadata !{i32 786453, i32 0, metadata !"", i32 0, i32 0, i64 0, i64 0, i64 0, i32 0, null, metadata !303, i32 0, i32 0} ; [ DW_TAG_subroutine_type ]
!303 = metadata !{metadata !300, metadata !210, metadata !214}
!304 = metadata !{i32 786478, i32 0, metadata !182, metadata !"operator=", metadata !"operator=", metadata !"_ZN11ap_int_baseILi32ELb1ELb1EEaSEPKc", metadata !183, i32 1586, metadata !305, i1 false, i1 false, i32 0, i32 0, null, i32 256, i1 false, null, null, i32 0, metadata !195, i32 1586} ; [ DW_TAG_subprogram ]
!305 = metadata !{i32 786453, i32 0, metadata !"", i32 0, i32 0, i64 0, i64 0, i64 0, i32 0, null, metadata !306, i32 0, i32 0} ; [ DW_TAG_subroutine_type ]
!306 = metadata !{metadata !300, metadata !210, metadata !280}
!307 = metadata !{i32 786478, i32 0, metadata !182, metadata !"set", metadata !"set", metadata !"_ZN11ap_int_baseILi32ELb1ELb1EE3setEPKca", metadata !183, i32 1594, metadata !308, i1 false, i1 false, i32 0, i32 0, null, i32 256, i1 false, null, null, i32 0, metadata !195, i32 1594} ; [ DW_TAG_subprogram ]
!308 = metadata !{i32 786453, i32 0, metadata !"", i32 0, i32 0, i64 0, i64 0, i64 0, i32 0, null, metadata !309, i32 0, i32 0} ; [ DW_TAG_subroutine_type ]
!309 = metadata !{metadata !300, metadata !210, metadata !280, metadata !231}
!310 = metadata !{i32 786478, i32 0, metadata !182, metadata !"operator=", metadata !"operator=", metadata !"_ZN11ap_int_baseILi32ELb1ELb1EEaSEa", metadata !183, i32 1608, metadata !311, i1 false, i1 false, i32 0, i32 0, null, i32 256, i1 false, null, null, i32 0, metadata !195, i32 1608} ; [ DW_TAG_subprogram ]
!311 = metadata !{i32 786453, i32 0, metadata !"", i32 0, i32 0, i64 0, i64 0, i64 0, i32 0, null, metadata !312, i32 0, i32 0} ; [ DW_TAG_subroutine_type ]
!312 = metadata !{metadata !300, metadata !210, metadata !231}
!313 = metadata !{i32 786478, i32 0, metadata !182, metadata !"operator=", metadata !"operator=", metadata !"_ZN11ap_int_baseILi32ELb1ELb1EEaSEh", metadata !183, i32 1609, metadata !314, i1 false, i1 false, i32 0, i32 0, null, i32 256, i1 false, null, null, i32 0, metadata !195, i32 1609} ; [ DW_TAG_subprogram ]
!314 = metadata !{i32 786453, i32 0, metadata !"", i32 0, i32 0, i64 0, i64 0, i64 0, i32 0, null, metadata !315, i32 0, i32 0} ; [ DW_TAG_subroutine_type ]
!315 = metadata !{metadata !300, metadata !210, metadata !235}
!316 = metadata !{i32 786478, i32 0, metadata !182, metadata !"operator=", metadata !"operator=", metadata !"_ZN11ap_int_baseILi32ELb1ELb1EEaSEs", metadata !183, i32 1610, metadata !317, i1 false, i1 false, i32 0, i32 0, null, i32 256, i1 false, null, null, i32 0, metadata !195, i32 1610} ; [ DW_TAG_subprogram ]
!317 = metadata !{i32 786453, i32 0, metadata !"", i32 0, i32 0, i64 0, i64 0, i64 0, i32 0, null, metadata !318, i32 0, i32 0} ; [ DW_TAG_subroutine_type ]
!318 = metadata !{metadata !300, metadata !210, metadata !239}
!319 = metadata !{i32 786478, i32 0, metadata !182, metadata !"operator=", metadata !"operator=", metadata !"_ZN11ap_int_baseILi32ELb1ELb1EEaSEt", metadata !183, i32 1611, metadata !320, i1 false, i1 false, i32 0, i32 0, null, i32 256, i1 false, null, null, i32 0, metadata !195, i32 1611} ; [ DW_TAG_subprogram ]
!320 = metadata !{i32 786453, i32 0, metadata !"", i32 0, i32 0, i64 0, i64 0, i64 0, i32 0, null, metadata !321, i32 0, i32 0} ; [ DW_TAG_subroutine_type ]
!321 = metadata !{metadata !300, metadata !210, metadata !243}
!322 = metadata !{i32 786478, i32 0, metadata !182, metadata !"operator=", metadata !"operator=", metadata !"_ZN11ap_int_baseILi32ELb1ELb1EEaSEi", metadata !183, i32 1612, metadata !323, i1 false, i1 false, i32 0, i32 0, null, i32 256, i1 false, null, null, i32 0, metadata !195, i32 1612} ; [ DW_TAG_subprogram ]
!323 = metadata !{i32 786453, i32 0, metadata !"", i32 0, i32 0, i64 0, i64 0, i64 0, i32 0, null, metadata !324, i32 0, i32 0} ; [ DW_TAG_subroutine_type ]
!324 = metadata !{metadata !300, metadata !210, metadata !204}
!325 = metadata !{i32 786478, i32 0, metadata !182, metadata !"operator=", metadata !"operator=", metadata !"_ZN11ap_int_baseILi32ELb1ELb1EEaSEj", metadata !183, i32 1613, metadata !326, i1 false, i1 false, i32 0, i32 0, null, i32 256, i1 false, null, null, i32 0, metadata !195, i32 1613} ; [ DW_TAG_subprogram ]
!326 = metadata !{i32 786453, i32 0, metadata !"", i32 0, i32 0, i64 0, i64 0, i64 0, i32 0, null, metadata !327, i32 0, i32 0} ; [ DW_TAG_subroutine_type ]
!327 = metadata !{metadata !300, metadata !210, metadata !250}
!328 = metadata !{i32 786478, i32 0, metadata !182, metadata !"operator=", metadata !"operator=", metadata !"_ZN11ap_int_baseILi32ELb1ELb1EEaSEx", metadata !183, i32 1614, metadata !329, i1 false, i1 false, i32 0, i32 0, null, i32 256, i1 false, null, null, i32 0, metadata !195, i32 1614} ; [ DW_TAG_subprogram ]
!329 = metadata !{i32 786453, i32 0, metadata !"", i32 0, i32 0, i64 0, i64 0, i64 0, i32 0, null, metadata !330, i32 0, i32 0} ; [ DW_TAG_subroutine_type ]
!330 = metadata !{metadata !300, metadata !210, metadata !262}
!331 = metadata !{i32 786478, i32 0, metadata !182, metadata !"operator=", metadata !"operator=", metadata !"_ZN11ap_int_baseILi32ELb1ELb1EEaSEy", metadata !183, i32 1615, metadata !332, i1 false, i1 false, i32 0, i32 0, null, i32 256, i1 false, null, null, i32 0, metadata !195, i32 1615} ; [ DW_TAG_subprogram ]
!332 = metadata !{i32 786453, i32 0, metadata !"", i32 0, i32 0, i64 0, i64 0, i64 0, i32 0, null, metadata !333, i32 0, i32 0} ; [ DW_TAG_subroutine_type ]
!333 = metadata !{metadata !300, metadata !210, metadata !267}
!334 = metadata !{i32 786478, i32 0, metadata !182, metadata !"operator int", metadata !"operator int", metadata !"_ZNK11ap_int_baseILi32ELb1ELb1EEcviEv", metadata !183, i32 1653, metadata !335, i1 false, i1 false, i32 0, i32 0, null, i32 256, i1 false, null, null, i32 0, metadata !195, i32 1653} ; [ DW_TAG_subprogram ]
!335 = metadata !{i32 786453, i32 0, metadata !"", i32 0, i32 0, i64 0, i64 0, i64 0, i32 0, null, metadata !336, i32 0, i32 0} ; [ DW_TAG_subroutine_type ]
!336 = metadata !{metadata !337, metadata !343}
!337 = metadata !{i32 786454, metadata !182, metadata !"RetType", metadata !183, i32 1402, i64 0, i64 0, i64 0, i32 0, metadata !338} ; [ DW_TAG_typedef ]
!338 = metadata !{i32 786454, metadata !339, metadata !"Type", metadata !183, i32 1385, i64 0, i64 0, i64 0, i32 0, metadata !204} ; [ DW_TAG_typedef ]
!339 = metadata !{i32 786434, null, metadata !"retval<4, true>", metadata !183, i32 1384, i64 8, i64 8, i32 0, i32 0, null, metadata !340, i32 0, null, metadata !341} ; [ DW_TAG_class_type ]
!340 = metadata !{i32 0}
!341 = metadata !{metadata !342, metadata !205}
!342 = metadata !{i32 786480, null, metadata !"_AP_N", metadata !204, i64 4, null, i32 0, i32 0} ; [ DW_TAG_template_value_parameter ]
!343 = metadata !{i32 786447, i32 0, metadata !"", i32 0, i32 0, i64 32, i64 32, i64 0, i32 64, metadata !215} ; [ DW_TAG_pointer_type ]
!344 = metadata !{i32 786478, i32 0, metadata !182, metadata !"to_bool", metadata !"to_bool", metadata !"_ZNK11ap_int_baseILi32ELb1ELb1EE7to_boolEv", metadata !183, i32 1659, metadata !345, i1 false, i1 false, i32 0, i32 0, null, i32 256, i1 false, null, null, i32 0, metadata !195, i32 1659} ; [ DW_TAG_subprogram ]
!345 = metadata !{i32 786453, i32 0, metadata !"", i32 0, i32 0, i64 0, i64 0, i64 0, i32 0, null, metadata !346, i32 0, i32 0} ; [ DW_TAG_subroutine_type ]
!346 = metadata !{metadata !206, metadata !343}
!347 = metadata !{i32 786478, i32 0, metadata !182, metadata !"to_uchar", metadata !"to_uchar", metadata !"_ZNK11ap_int_baseILi32ELb1ELb1EE8to_ucharEv", metadata !183, i32 1660, metadata !348, i1 false, i1 false, i32 0, i32 0, null, i32 256, i1 false, null, null, i32 0, metadata !195, i32 1660} ; [ DW_TAG_subprogram ]
!348 = metadata !{i32 786453, i32 0, metadata !"", i32 0, i32 0, i64 0, i64 0, i64 0, i32 0, null, metadata !349, i32 0, i32 0} ; [ DW_TAG_subroutine_type ]
!349 = metadata !{metadata !235, metadata !343}
!350 = metadata !{i32 786478, i32 0, metadata !182, metadata !"to_char", metadata !"to_char", metadata !"_ZNK11ap_int_baseILi32ELb1ELb1EE7to_charEv", metadata !183, i32 1661, metadata !351, i1 false, i1 false, i32 0, i32 0, null, i32 256, i1 false, null, null, i32 0, metadata !195, i32 1661} ; [ DW_TAG_subprogram ]
!351 = metadata !{i32 786453, i32 0, metadata !"", i32 0, i32 0, i64 0, i64 0, i64 0, i32 0, null, metadata !352, i32 0, i32 0} ; [ DW_TAG_subroutine_type ]
!352 = metadata !{metadata !231, metadata !343}
!353 = metadata !{i32 786478, i32 0, metadata !182, metadata !"to_ushort", metadata !"to_ushort", metadata !"_ZNK11ap_int_baseILi32ELb1ELb1EE9to_ushortEv", metadata !183, i32 1662, metadata !354, i1 false, i1 false, i32 0, i32 0, null, i32 256, i1 false, null, null, i32 0, metadata !195, i32 1662} ; [ DW_TAG_subprogram ]
!354 = metadata !{i32 786453, i32 0, metadata !"", i32 0, i32 0, i64 0, i64 0, i64 0, i32 0, null, metadata !355, i32 0, i32 0} ; [ DW_TAG_subroutine_type ]
!355 = metadata !{metadata !243, metadata !343}
!356 = metadata !{i32 786478, i32 0, metadata !182, metadata !"to_short", metadata !"to_short", metadata !"_ZNK11ap_int_baseILi32ELb1ELb1EE8to_shortEv", metadata !183, i32 1663, metadata !357, i1 false, i1 false, i32 0, i32 0, null, i32 256, i1 false, null, null, i32 0, metadata !195, i32 1663} ; [ DW_TAG_subprogram ]
!357 = metadata !{i32 786453, i32 0, metadata !"", i32 0, i32 0, i64 0, i64 0, i64 0, i32 0, null, metadata !358, i32 0, i32 0} ; [ DW_TAG_subroutine_type ]
!358 = metadata !{metadata !239, metadata !343}
!359 = metadata !{i32 786478, i32 0, metadata !182, metadata !"to_int", metadata !"to_int", metadata !"_ZNK11ap_int_baseILi32ELb1ELb1EE6to_intEv", metadata !183, i32 1664, metadata !360, i1 false, i1 false, i32 0, i32 0, null, i32 256, i1 false, null, null, i32 0, metadata !195, i32 1664} ; [ DW_TAG_subprogram ]
!360 = metadata !{i32 786453, i32 0, metadata !"", i32 0, i32 0, i64 0, i64 0, i64 0, i32 0, null, metadata !361, i32 0, i32 0} ; [ DW_TAG_subroutine_type ]
!361 = metadata !{metadata !204, metadata !343}
!362 = metadata !{i32 786478, i32 0, metadata !182, metadata !"to_uint", metadata !"to_uint", metadata !"_ZNK11ap_int_baseILi32ELb1ELb1EE7to_uintEv", metadata !183, i32 1665, metadata !363, i1 false, i1 false, i32 0, i32 0, null, i32 256, i1 false, null, null, i32 0, metadata !195, i32 1665} ; [ DW_TAG_subprogram ]
!363 = metadata !{i32 786453, i32 0, metadata !"", i32 0, i32 0, i64 0, i64 0, i64 0, i32 0, null, metadata !364, i32 0, i32 0} ; [ DW_TAG_subroutine_type ]
!364 = metadata !{metadata !250, metadata !343}
!365 = metadata !{i32 786478, i32 0, metadata !182, metadata !"to_long", metadata !"to_long", metadata !"_ZNK11ap_int_baseILi32ELb1ELb1EE7to_longEv", metadata !183, i32 1666, metadata !366, i1 false, i1 false, i32 0, i32 0, null, i32 256, i1 false, null, null, i32 0, metadata !195, i32 1666} ; [ DW_TAG_subprogram ]
!366 = metadata !{i32 786453, i32 0, metadata !"", i32 0, i32 0, i64 0, i64 0, i64 0, i32 0, null, metadata !367, i32 0, i32 0} ; [ DW_TAG_subroutine_type ]
!367 = metadata !{metadata !254, metadata !343}
!368 = metadata !{i32 786478, i32 0, metadata !182, metadata !"to_ulong", metadata !"to_ulong", metadata !"_ZNK11ap_int_baseILi32ELb1ELb1EE8to_ulongEv", metadata !183, i32 1667, metadata !369, i1 false, i1 false, i32 0, i32 0, null, i32 256, i1 false, null, null, i32 0, metadata !195, i32 1667} ; [ DW_TAG_subprogram ]
!369 = metadata !{i32 786453, i32 0, metadata !"", i32 0, i32 0, i64 0, i64 0, i64 0, i32 0, null, metadata !370, i32 0, i32 0} ; [ DW_TAG_subroutine_type ]
!370 = metadata !{metadata !258, metadata !343}
!371 = metadata !{i32 786478, i32 0, metadata !182, metadata !"to_int64", metadata !"to_int64", metadata !"_ZNK11ap_int_baseILi32ELb1ELb1EE8to_int64Ev", metadata !183, i32 1668, metadata !372, i1 false, i1 false, i32 0, i32 0, null, i32 256, i1 false, null, null, i32 0, metadata !195, i32 1668} ; [ DW_TAG_subprogram ]
!372 = metadata !{i32 786453, i32 0, metadata !"", i32 0, i32 0, i64 0, i64 0, i64 0, i32 0, null, metadata !373, i32 0, i32 0} ; [ DW_TAG_subroutine_type ]
!373 = metadata !{metadata !262, metadata !343}
!374 = metadata !{i32 786478, i32 0, metadata !182, metadata !"to_uint64", metadata !"to_uint64", metadata !"_ZNK11ap_int_baseILi32ELb1ELb1EE9to_uint64Ev", metadata !183, i32 1669, metadata !375, i1 false, i1 false, i32 0, i32 0, null, i32 256, i1 false, null, null, i32 0, metadata !195, i32 1669} ; [ DW_TAG_subprogram ]
!375 = metadata !{i32 786453, i32 0, metadata !"", i32 0, i32 0, i64 0, i64 0, i64 0, i32 0, null, metadata !376, i32 0, i32 0} ; [ DW_TAG_subroutine_type ]
!376 = metadata !{metadata !267, metadata !343}
!377 = metadata !{i32 786478, i32 0, metadata !182, metadata !"to_double", metadata !"to_double", metadata !"_ZNK11ap_int_baseILi32ELb1ELb1EE9to_doubleEv", metadata !183, i32 1670, metadata !378, i1 false, i1 false, i32 0, i32 0, null, i32 256, i1 false, null, null, i32 0, metadata !195, i32 1670} ; [ DW_TAG_subprogram ]
!378 = metadata !{i32 786453, i32 0, metadata !"", i32 0, i32 0, i64 0, i64 0, i64 0, i32 0, null, metadata !379, i32 0, i32 0} ; [ DW_TAG_subroutine_type ]
!379 = metadata !{metadata !276, metadata !343}
!380 = metadata !{i32 786478, i32 0, metadata !182, metadata !"length", metadata !"length", metadata !"_ZNK11ap_int_baseILi32ELb1ELb1EE6lengthEv", metadata !183, i32 1684, metadata !360, i1 false, i1 false, i32 0, i32 0, null, i32 256, i1 false, null, null, i32 0, metadata !195, i32 1684} ; [ DW_TAG_subprogram ]
!381 = metadata !{i32 786478, i32 0, metadata !182, metadata !"length", metadata !"length", metadata !"_ZNVK11ap_int_baseILi32ELb1ELb1EE6lengthEv", metadata !183, i32 1685, metadata !382, i1 false, i1 false, i32 0, i32 0, null, i32 256, i1 false, null, null, i32 0, metadata !195, i32 1685} ; [ DW_TAG_subprogram ]
!382 = metadata !{i32 786453, i32 0, metadata !"", i32 0, i32 0, i64 0, i64 0, i64 0, i32 0, null, metadata !383, i32 0, i32 0} ; [ DW_TAG_subroutine_type ]
!383 = metadata !{metadata !204, metadata !384}
!384 = metadata !{i32 786447, i32 0, metadata !"", i32 0, i32 0, i64 32, i64 32, i64 0, i32 64, metadata !223} ; [ DW_TAG_pointer_type ]
!385 = metadata !{i32 786478, i32 0, metadata !182, metadata !"reverse", metadata !"reverse", metadata !"_ZN11ap_int_baseILi32ELb1ELb1EE7reverseEv", metadata !183, i32 1690, metadata !386, i1 false, i1 false, i32 0, i32 0, null, i32 256, i1 false, null, null, i32 0, metadata !195, i32 1690} ; [ DW_TAG_subprogram ]
!386 = metadata !{i32 786453, i32 0, metadata !"", i32 0, i32 0, i64 0, i64 0, i64 0, i32 0, null, metadata !387, i32 0, i32 0} ; [ DW_TAG_subroutine_type ]
!387 = metadata !{metadata !300, metadata !210}
!388 = metadata !{i32 786478, i32 0, metadata !182, metadata !"iszero", metadata !"iszero", metadata !"_ZNK11ap_int_baseILi32ELb1ELb1EE6iszeroEv", metadata !183, i32 1696, metadata !345, i1 false, i1 false, i32 0, i32 0, null, i32 256, i1 false, null, null, i32 0, metadata !195, i32 1696} ; [ DW_TAG_subprogram ]
!389 = metadata !{i32 786478, i32 0, metadata !182, metadata !"is_zero", metadata !"is_zero", metadata !"_ZNK11ap_int_baseILi32ELb1ELb1EE7is_zeroEv", metadata !183, i32 1701, metadata !345, i1 false, i1 false, i32 0, i32 0, null, i32 256, i1 false, null, null, i32 0, metadata !195, i32 1701} ; [ DW_TAG_subprogram ]
!390 = metadata !{i32 786478, i32 0, metadata !182, metadata !"sign", metadata !"sign", metadata !"_ZNK11ap_int_baseILi32ELb1ELb1EE4signEv", metadata !183, i32 1706, metadata !345, i1 false, i1 false, i32 0, i32 0, null, i32 256, i1 false, null, null, i32 0, metadata !195, i32 1706} ; [ DW_TAG_subprogram ]
!391 = metadata !{i32 786478, i32 0, metadata !182, metadata !"clear", metadata !"clear", metadata !"_ZN11ap_int_baseILi32ELb1ELb1EE5clearEi", metadata !183, i32 1714, metadata !245, i1 false, i1 false, i32 0, i32 0, null, i32 256, i1 false, null, null, i32 0, metadata !195, i32 1714} ; [ DW_TAG_subprogram ]
!392 = metadata !{i32 786478, i32 0, metadata !182, metadata !"invert", metadata !"invert", metadata !"_ZN11ap_int_baseILi32ELb1ELb1EE6invertEi", metadata !183, i32 1720, metadata !245, i1 false, i1 false, i32 0, i32 0, null, i32 256, i1 false, null, null, i32 0, metadata !195, i32 1720} ; [ DW_TAG_subprogram ]
!393 = metadata !{i32 786478, i32 0, metadata !182, metadata !"test", metadata !"test", metadata !"_ZNK11ap_int_baseILi32ELb1ELb1EE4testEi", metadata !183, i32 1728, metadata !394, i1 false, i1 false, i32 0, i32 0, null, i32 256, i1 false, null, null, i32 0, metadata !195, i32 1728} ; [ DW_TAG_subprogram ]
!394 = metadata !{i32 786453, i32 0, metadata !"", i32 0, i32 0, i64 0, i64 0, i64 0, i32 0, null, metadata !395, i32 0, i32 0} ; [ DW_TAG_subroutine_type ]
!395 = metadata !{metadata !206, metadata !343, metadata !204}
!396 = metadata !{i32 786478, i32 0, metadata !182, metadata !"set", metadata !"set", metadata !"_ZN11ap_int_baseILi32ELb1ELb1EE3setEi", metadata !183, i32 1734, metadata !245, i1 false, i1 false, i32 0, i32 0, null, i32 256, i1 false, null, null, i32 0, metadata !195, i32 1734} ; [ DW_TAG_subprogram ]
!397 = metadata !{i32 786478, i32 0, metadata !182, metadata !"set", metadata !"set", metadata !"_ZN11ap_int_baseILi32ELb1ELb1EE3setEib", metadata !183, i32 1740, metadata !398, i1 false, i1 false, i32 0, i32 0, null, i32 256, i1 false, null, null, i32 0, metadata !195, i32 1740} ; [ DW_TAG_subprogram ]
!398 = metadata !{i32 786453, i32 0, metadata !"", i32 0, i32 0, i64 0, i64 0, i64 0, i32 0, null, metadata !399, i32 0, i32 0} ; [ DW_TAG_subroutine_type ]
!399 = metadata !{null, metadata !210, metadata !204, metadata !206}
!400 = metadata !{i32 786478, i32 0, metadata !182, metadata !"lrotate", metadata !"lrotate", metadata !"_ZN11ap_int_baseILi32ELb1ELb1EE7lrotateEi", metadata !183, i32 1747, metadata !245, i1 false, i1 false, i32 0, i32 0, null, i32 256, i1 false, null, null, i32 0, metadata !195, i32 1747} ; [ DW_TAG_subprogram ]
!401 = metadata !{i32 786478, i32 0, metadata !182, metadata !"rrotate", metadata !"rrotate", metadata !"_ZN11ap_int_baseILi32ELb1ELb1EE7rrotateEi", metadata !183, i32 1756, metadata !245, i1 false, i1 false, i32 0, i32 0, null, i32 256, i1 false, null, null, i32 0, metadata !195, i32 1756} ; [ DW_TAG_subprogram ]
!402 = metadata !{i32 786478, i32 0, metadata !182, metadata !"set_bit", metadata !"set_bit", metadata !"_ZN11ap_int_baseILi32ELb1ELb1EE7set_bitEib", metadata !183, i32 1764, metadata !398, i1 false, i1 false, i32 0, i32 0, null, i32 256, i1 false, null, null, i32 0, metadata !195, i32 1764} ; [ DW_TAG_subprogram ]
!403 = metadata !{i32 786478, i32 0, metadata !182, metadata !"get_bit", metadata !"get_bit", metadata !"_ZNK11ap_int_baseILi32ELb1ELb1EE7get_bitEi", metadata !183, i32 1769, metadata !394, i1 false, i1 false, i32 0, i32 0, null, i32 256, i1 false, null, null, i32 0, metadata !195, i32 1769} ; [ DW_TAG_subprogram ]
!404 = metadata !{i32 786478, i32 0, metadata !182, metadata !"b_not", metadata !"b_not", metadata !"_ZN11ap_int_baseILi32ELb1ELb1EE5b_notEv", metadata !183, i32 1774, metadata !208, i1 false, i1 false, i32 0, i32 0, null, i32 256, i1 false, null, null, i32 0, metadata !195, i32 1774} ; [ DW_TAG_subprogram ]
!405 = metadata !{i32 786478, i32 0, metadata !182, metadata !"countLeadingZeros", metadata !"countLeadingZeros", metadata !"_ZN11ap_int_baseILi32ELb1ELb1EE17countLeadingZerosEv", metadata !183, i32 1781, metadata !406, i1 false, i1 false, i32 0, i32 0, null, i32 256, i1 false, null, null, i32 0, metadata !195, i32 1781} ; [ DW_TAG_subprogram ]
!406 = metadata !{i32 786453, i32 0, metadata !"", i32 0, i32 0, i64 0, i64 0, i64 0, i32 0, null, metadata !407, i32 0, i32 0} ; [ DW_TAG_subroutine_type ]
!407 = metadata !{metadata !204, metadata !210}
!408 = metadata !{i32 786478, i32 0, metadata !182, metadata !"operator++", metadata !"operator++", metadata !"_ZN11ap_int_baseILi32ELb1ELb1EEppEv", metadata !183, i32 1838, metadata !386, i1 false, i1 false, i32 0, i32 0, null, i32 256, i1 false, null, null, i32 0, metadata !195, i32 1838} ; [ DW_TAG_subprogram ]
!409 = metadata !{i32 786478, i32 0, metadata !182, metadata !"operator--", metadata !"operator--", metadata !"_ZN11ap_int_baseILi32ELb1ELb1EEmmEv", metadata !183, i32 1842, metadata !386, i1 false, i1 false, i32 0, i32 0, null, i32 256, i1 false, null, null, i32 0, metadata !195, i32 1842} ; [ DW_TAG_subprogram ]
!410 = metadata !{i32 786478, i32 0, metadata !182, metadata !"operator++", metadata !"operator++", metadata !"_ZN11ap_int_baseILi32ELb1ELb1EEppEi", metadata !183, i32 1850, metadata !411, i1 false, i1 false, i32 0, i32 0, null, i32 256, i1 false, null, null, i32 0, metadata !195, i32 1850} ; [ DW_TAG_subprogram ]
!411 = metadata !{i32 786453, i32 0, metadata !"", i32 0, i32 0, i64 0, i64 0, i64 0, i32 0, null, metadata !412, i32 0, i32 0} ; [ DW_TAG_subroutine_type ]
!412 = metadata !{metadata !215, metadata !210, metadata !204}
!413 = metadata !{i32 786478, i32 0, metadata !182, metadata !"operator--", metadata !"operator--", metadata !"_ZN11ap_int_baseILi32ELb1ELb1EEmmEi", metadata !183, i32 1855, metadata !411, i1 false, i1 false, i32 0, i32 0, null, i32 256, i1 false, null, null, i32 0, metadata !195, i32 1855} ; [ DW_TAG_subprogram ]
!414 = metadata !{i32 786478, i32 0, metadata !182, metadata !"operator+", metadata !"operator+", metadata !"_ZNK11ap_int_baseILi32ELb1ELb1EEpsEv", metadata !183, i32 1864, metadata !415, i1 false, i1 false, i32 0, i32 0, null, i32 256, i1 false, null, null, i32 0, metadata !195, i32 1864} ; [ DW_TAG_subprogram ]
!415 = metadata !{i32 786453, i32 0, metadata !"", i32 0, i32 0, i64 0, i64 0, i64 0, i32 0, null, metadata !416, i32 0, i32 0} ; [ DW_TAG_subroutine_type ]
!416 = metadata !{metadata !182, metadata !343}
!417 = metadata !{i32 786478, i32 0, metadata !182, metadata !"operator!", metadata !"operator!", metadata !"_ZNK11ap_int_baseILi32ELb1ELb1EEntEv", metadata !183, i32 1870, metadata !345, i1 false, i1 false, i32 0, i32 0, null, i32 256, i1 false, null, null, i32 0, metadata !195, i32 1870} ; [ DW_TAG_subprogram ]
!418 = metadata !{i32 786478, i32 0, metadata !182, metadata !"operator-", metadata !"operator-", metadata !"_ZNK11ap_int_baseILi32ELb1ELb1EEngEv", metadata !183, i32 1875, metadata !419, i1 false, i1 false, i32 0, i32 0, null, i32 256, i1 false, null, null, i32 0, metadata !195, i32 1875} ; [ DW_TAG_subprogram ]
!419 = metadata !{i32 786453, i32 0, metadata !"", i32 0, i32 0, i64 0, i64 0, i64 0, i32 0, null, metadata !420, i32 0, i32 0} ; [ DW_TAG_subroutine_type ]
!420 = metadata !{metadata !421, metadata !343}
!421 = metadata !{i32 786434, null, metadata !"ap_int_base<33, true, true>", metadata !183, i32 1397, i64 64, i64 64, i32 0, i32 0, null, metadata !422, i32 0, null, metadata !712} ; [ DW_TAG_class_type ]
!422 = metadata !{metadata !423, metadata !434, metadata !438, metadata !445, metadata !451, metadata !454, metadata !457, metadata !460, metadata !463, metadata !466, metadata !469, metadata !472, metadata !475, metadata !478, metadata !481, metadata !484, metadata !487, metadata !490, metadata !493, metadata !496, metadata !500, metadata !503, metadata !506, metadata !507, metadata !511, metadata !514, metadata !517, metadata !520, metadata !523, metadata !526, metadata !529, metadata !532, metadata !535, metadata !538, metadata !541, metadata !544, metadata !553, metadata !556, metadata !559, metadata !562, metadata !565, metadata !568, metadata !571, metadata !574, metadata !577, metadata !580, metadata !583, metadata !586, metadata !589, metadata !590, metadata !594, metadata !597, metadata !598, metadata !599, metadata !600, metadata !601, metadata !602, metadata !605, metadata !606, metadata !609, metadata !610, metadata !611, metadata !612, metadata !613, metadata !614, metadata !617, metadata !618, metadata !619, metadata !622, metadata !623, metadata !626, metadata !627, metadata !631, metadata !635, metadata !636, metadata !639, metadata !640, metadata !679, metadata !680, metadata !681, metadata !682, metadata !685, metadata !686, metadata !687, metadata !688, metadata !689, metadata !690, metadata !691, metadata !692, metadata !693, metadata !694, metadata !695, metadata !696, metadata !706, metadata !709}
!423 = metadata !{i32 786460, metadata !421, null, metadata !183, i32 0, i64 0, i64 0, i64 0, i32 0, metadata !424} ; [ DW_TAG_inheritance ]
!424 = metadata !{i32 786434, null, metadata !"ssdm_int<33 + 1024 * 0, true>", metadata !187, i32 35, i64 64, i64 64, i32 0, i32 0, null, metadata !425, i32 0, null, metadata !432} ; [ DW_TAG_class_type ]
!425 = metadata !{metadata !426, metadata !428}
!426 = metadata !{i32 786445, metadata !424, metadata !"V", metadata !187, i32 35, i64 33, i64 64, i64 0, i32 0, metadata !427} ; [ DW_TAG_member ]
!427 = metadata !{i32 786468, null, metadata !"int33", null, i32 0, i64 33, i64 64, i64 0, i32 0, i32 5} ; [ DW_TAG_base_type ]
!428 = metadata !{i32 786478, i32 0, metadata !424, metadata !"ssdm_int", metadata !"ssdm_int", metadata !"", metadata !187, i32 35, metadata !429, i1 false, i1 false, i32 0, i32 0, null, i32 256, i1 false, null, null, i32 0, metadata !195, i32 35} ; [ DW_TAG_subprogram ]
!429 = metadata !{i32 786453, i32 0, metadata !"", i32 0, i32 0, i64 0, i64 0, i64 0, i32 0, null, metadata !430, i32 0, i32 0} ; [ DW_TAG_subroutine_type ]
!430 = metadata !{null, metadata !431}
!431 = metadata !{i32 786447, i32 0, metadata !"", i32 0, i32 0, i64 32, i64 32, i64 0, i32 64, metadata !424} ; [ DW_TAG_pointer_type ]
!432 = metadata !{metadata !433, metadata !205}
!433 = metadata !{i32 786480, null, metadata !"_AP_N", metadata !204, i64 33, null, i32 0, i32 0} ; [ DW_TAG_template_value_parameter ]
!434 = metadata !{i32 786478, i32 0, metadata !421, metadata !"ap_int_base", metadata !"ap_int_base", metadata !"", metadata !183, i32 1438, metadata !435, i1 false, i1 false, i32 0, i32 0, null, i32 256, i1 false, null, null, i32 0, metadata !195, i32 1438} ; [ DW_TAG_subprogram ]
!435 = metadata !{i32 786453, i32 0, metadata !"", i32 0, i32 0, i64 0, i64 0, i64 0, i32 0, null, metadata !436, i32 0, i32 0} ; [ DW_TAG_subroutine_type ]
!436 = metadata !{null, metadata !437}
!437 = metadata !{i32 786447, i32 0, metadata !"", i32 0, i32 0, i64 32, i64 32, i64 0, i32 64, metadata !421} ; [ DW_TAG_pointer_type ]
!438 = metadata !{i32 786478, i32 0, metadata !421, metadata !"ap_int_base<33, true>", metadata !"ap_int_base<33, true>", metadata !"", metadata !183, i32 1450, metadata !439, i1 false, i1 false, i32 0, i32 0, null, i32 256, i1 false, null, metadata !443, i32 0, metadata !195, i32 1450} ; [ DW_TAG_subprogram ]
!439 = metadata !{i32 786453, i32 0, metadata !"", i32 0, i32 0, i64 0, i64 0, i64 0, i32 0, null, metadata !440, i32 0, i32 0} ; [ DW_TAG_subroutine_type ]
!440 = metadata !{null, metadata !437, metadata !441}
!441 = metadata !{i32 786448, null, null, null, i32 0, i64 0, i64 0, i64 0, i32 0, metadata !442} ; [ DW_TAG_reference_type ]
!442 = metadata !{i32 786470, null, metadata !"", null, i32 0, i64 0, i64 0, i64 0, i32 0, metadata !421} ; [ DW_TAG_const_type ]
!443 = metadata !{metadata !444, metadata !218}
!444 = metadata !{i32 786480, null, metadata !"_AP_W2", metadata !204, i64 33, null, i32 0, i32 0} ; [ DW_TAG_template_value_parameter ]
!445 = metadata !{i32 786478, i32 0, metadata !421, metadata !"ap_int_base<33, true>", metadata !"ap_int_base<33, true>", metadata !"", metadata !183, i32 1453, metadata !446, i1 false, i1 false, i32 0, i32 0, null, i32 256, i1 false, null, metadata !443, i32 0, metadata !195, i32 1453} ; [ DW_TAG_subprogram ]
!446 = metadata !{i32 786453, i32 0, metadata !"", i32 0, i32 0, i64 0, i64 0, i64 0, i32 0, null, metadata !447, i32 0, i32 0} ; [ DW_TAG_subroutine_type ]
!447 = metadata !{null, metadata !437, metadata !448}
!448 = metadata !{i32 786448, null, null, null, i32 0, i64 0, i64 0, i64 0, i32 0, metadata !449} ; [ DW_TAG_reference_type ]
!449 = metadata !{i32 786470, null, metadata !"", null, i32 0, i64 0, i64 0, i64 0, i32 0, metadata !450} ; [ DW_TAG_const_type ]
!450 = metadata !{i32 786485, null, metadata !"", null, i32 0, i64 0, i64 0, i64 0, i32 0, metadata !421} ; [ DW_TAG_volatile_type ]
!451 = metadata !{i32 786478, i32 0, metadata !421, metadata !"ap_int_base", metadata !"ap_int_base", metadata !"", metadata !183, i32 1460, metadata !452, i1 false, i1 false, i32 0, i32 0, null, i32 384, i1 false, null, null, i32 0, metadata !195, i32 1460} ; [ DW_TAG_subprogram ]
!452 = metadata !{i32 786453, i32 0, metadata !"", i32 0, i32 0, i64 0, i64 0, i64 0, i32 0, null, metadata !453, i32 0, i32 0} ; [ DW_TAG_subroutine_type ]
!453 = metadata !{null, metadata !437, metadata !206}
!454 = metadata !{i32 786478, i32 0, metadata !421, metadata !"ap_int_base", metadata !"ap_int_base", metadata !"", metadata !183, i32 1461, metadata !455, i1 false, i1 false, i32 0, i32 0, null, i32 384, i1 false, null, null, i32 0, metadata !195, i32 1461} ; [ DW_TAG_subprogram ]
!455 = metadata !{i32 786453, i32 0, metadata !"", i32 0, i32 0, i64 0, i64 0, i64 0, i32 0, null, metadata !456, i32 0, i32 0} ; [ DW_TAG_subroutine_type ]
!456 = metadata !{null, metadata !437, metadata !231}
!457 = metadata !{i32 786478, i32 0, metadata !421, metadata !"ap_int_base", metadata !"ap_int_base", metadata !"", metadata !183, i32 1462, metadata !458, i1 false, i1 false, i32 0, i32 0, null, i32 384, i1 false, null, null, i32 0, metadata !195, i32 1462} ; [ DW_TAG_subprogram ]
!458 = metadata !{i32 786453, i32 0, metadata !"", i32 0, i32 0, i64 0, i64 0, i64 0, i32 0, null, metadata !459, i32 0, i32 0} ; [ DW_TAG_subroutine_type ]
!459 = metadata !{null, metadata !437, metadata !235}
!460 = metadata !{i32 786478, i32 0, metadata !421, metadata !"ap_int_base", metadata !"ap_int_base", metadata !"", metadata !183, i32 1463, metadata !461, i1 false, i1 false, i32 0, i32 0, null, i32 384, i1 false, null, null, i32 0, metadata !195, i32 1463} ; [ DW_TAG_subprogram ]
!461 = metadata !{i32 786453, i32 0, metadata !"", i32 0, i32 0, i64 0, i64 0, i64 0, i32 0, null, metadata !462, i32 0, i32 0} ; [ DW_TAG_subroutine_type ]
!462 = metadata !{null, metadata !437, metadata !239}
!463 = metadata !{i32 786478, i32 0, metadata !421, metadata !"ap_int_base", metadata !"ap_int_base", metadata !"", metadata !183, i32 1464, metadata !464, i1 false, i1 false, i32 0, i32 0, null, i32 384, i1 false, null, null, i32 0, metadata !195, i32 1464} ; [ DW_TAG_subprogram ]
!464 = metadata !{i32 786453, i32 0, metadata !"", i32 0, i32 0, i64 0, i64 0, i64 0, i32 0, null, metadata !465, i32 0, i32 0} ; [ DW_TAG_subroutine_type ]
!465 = metadata !{null, metadata !437, metadata !243}
!466 = metadata !{i32 786478, i32 0, metadata !421, metadata !"ap_int_base", metadata !"ap_int_base", metadata !"", metadata !183, i32 1465, metadata !467, i1 false, i1 false, i32 0, i32 0, null, i32 384, i1 false, null, null, i32 0, metadata !195, i32 1465} ; [ DW_TAG_subprogram ]
!467 = metadata !{i32 786453, i32 0, metadata !"", i32 0, i32 0, i64 0, i64 0, i64 0, i32 0, null, metadata !468, i32 0, i32 0} ; [ DW_TAG_subroutine_type ]
!468 = metadata !{null, metadata !437, metadata !204}
!469 = metadata !{i32 786478, i32 0, metadata !421, metadata !"ap_int_base", metadata !"ap_int_base", metadata !"", metadata !183, i32 1466, metadata !470, i1 false, i1 false, i32 0, i32 0, null, i32 384, i1 false, null, null, i32 0, metadata !195, i32 1466} ; [ DW_TAG_subprogram ]
!470 = metadata !{i32 786453, i32 0, metadata !"", i32 0, i32 0, i64 0, i64 0, i64 0, i32 0, null, metadata !471, i32 0, i32 0} ; [ DW_TAG_subroutine_type ]
!471 = metadata !{null, metadata !437, metadata !250}
!472 = metadata !{i32 786478, i32 0, metadata !421, metadata !"ap_int_base", metadata !"ap_int_base", metadata !"", metadata !183, i32 1467, metadata !473, i1 false, i1 false, i32 0, i32 0, null, i32 384, i1 false, null, null, i32 0, metadata !195, i32 1467} ; [ DW_TAG_subprogram ]
!473 = metadata !{i32 786453, i32 0, metadata !"", i32 0, i32 0, i64 0, i64 0, i64 0, i32 0, null, metadata !474, i32 0, i32 0} ; [ DW_TAG_subroutine_type ]
!474 = metadata !{null, metadata !437, metadata !254}
!475 = metadata !{i32 786478, i32 0, metadata !421, metadata !"ap_int_base", metadata !"ap_int_base", metadata !"", metadata !183, i32 1468, metadata !476, i1 false, i1 false, i32 0, i32 0, null, i32 384, i1 false, null, null, i32 0, metadata !195, i32 1468} ; [ DW_TAG_subprogram ]
!476 = metadata !{i32 786453, i32 0, metadata !"", i32 0, i32 0, i64 0, i64 0, i64 0, i32 0, null, metadata !477, i32 0, i32 0} ; [ DW_TAG_subroutine_type ]
!477 = metadata !{null, metadata !437, metadata !258}
!478 = metadata !{i32 786478, i32 0, metadata !421, metadata !"ap_int_base", metadata !"ap_int_base", metadata !"", metadata !183, i32 1469, metadata !479, i1 false, i1 false, i32 0, i32 0, null, i32 384, i1 false, null, null, i32 0, metadata !195, i32 1469} ; [ DW_TAG_subprogram ]
!479 = metadata !{i32 786453, i32 0, metadata !"", i32 0, i32 0, i64 0, i64 0, i64 0, i32 0, null, metadata !480, i32 0, i32 0} ; [ DW_TAG_subroutine_type ]
!480 = metadata !{null, metadata !437, metadata !262}
!481 = metadata !{i32 786478, i32 0, metadata !421, metadata !"ap_int_base", metadata !"ap_int_base", metadata !"", metadata !183, i32 1470, metadata !482, i1 false, i1 false, i32 0, i32 0, null, i32 384, i1 false, null, null, i32 0, metadata !195, i32 1470} ; [ DW_TAG_subprogram ]
!482 = metadata !{i32 786453, i32 0, metadata !"", i32 0, i32 0, i64 0, i64 0, i64 0, i32 0, null, metadata !483, i32 0, i32 0} ; [ DW_TAG_subroutine_type ]
!483 = metadata !{null, metadata !437, metadata !267}
!484 = metadata !{i32 786478, i32 0, metadata !421, metadata !"ap_int_base", metadata !"ap_int_base", metadata !"", metadata !183, i32 1471, metadata !485, i1 false, i1 false, i32 0, i32 0, null, i32 384, i1 false, null, null, i32 0, metadata !195, i32 1471} ; [ DW_TAG_subprogram ]
!485 = metadata !{i32 786453, i32 0, metadata !"", i32 0, i32 0, i64 0, i64 0, i64 0, i32 0, null, metadata !486, i32 0, i32 0} ; [ DW_TAG_subroutine_type ]
!486 = metadata !{null, metadata !437, metadata !272}
!487 = metadata !{i32 786478, i32 0, metadata !421, metadata !"ap_int_base", metadata !"ap_int_base", metadata !"", metadata !183, i32 1472, metadata !488, i1 false, i1 false, i32 0, i32 0, null, i32 384, i1 false, null, null, i32 0, metadata !195, i32 1472} ; [ DW_TAG_subprogram ]
!488 = metadata !{i32 786453, i32 0, metadata !"", i32 0, i32 0, i64 0, i64 0, i64 0, i32 0, null, metadata !489, i32 0, i32 0} ; [ DW_TAG_subroutine_type ]
!489 = metadata !{null, metadata !437, metadata !276}
!490 = metadata !{i32 786478, i32 0, metadata !421, metadata !"ap_int_base", metadata !"ap_int_base", metadata !"", metadata !183, i32 1499, metadata !491, i1 false, i1 false, i32 0, i32 0, null, i32 256, i1 false, null, null, i32 0, metadata !195, i32 1499} ; [ DW_TAG_subprogram ]
!491 = metadata !{i32 786453, i32 0, metadata !"", i32 0, i32 0, i64 0, i64 0, i64 0, i32 0, null, metadata !492, i32 0, i32 0} ; [ DW_TAG_subroutine_type ]
!492 = metadata !{null, metadata !437, metadata !280}
!493 = metadata !{i32 786478, i32 0, metadata !421, metadata !"ap_int_base", metadata !"ap_int_base", metadata !"", metadata !183, i32 1506, metadata !494, i1 false, i1 false, i32 0, i32 0, null, i32 256, i1 false, null, null, i32 0, metadata !195, i32 1506} ; [ DW_TAG_subprogram ]
!494 = metadata !{i32 786453, i32 0, metadata !"", i32 0, i32 0, i64 0, i64 0, i64 0, i32 0, null, metadata !495, i32 0, i32 0} ; [ DW_TAG_subroutine_type ]
!495 = metadata !{null, metadata !437, metadata !280, metadata !231}
!496 = metadata !{i32 786478, i32 0, metadata !421, metadata !"read", metadata !"read", metadata !"_ZNV11ap_int_baseILi33ELb1ELb1EE4readEv", metadata !183, i32 1527, metadata !497, i1 false, i1 false, i32 0, i32 0, null, i32 256, i1 false, null, null, i32 0, metadata !195, i32 1527} ; [ DW_TAG_subprogram ]
!497 = metadata !{i32 786453, i32 0, metadata !"", i32 0, i32 0, i64 0, i64 0, i64 0, i32 0, null, metadata !498, i32 0, i32 0} ; [ DW_TAG_subroutine_type ]
!498 = metadata !{metadata !421, metadata !499}
!499 = metadata !{i32 786447, i32 0, metadata !"", i32 0, i32 0, i64 32, i64 32, i64 0, i32 64, metadata !450} ; [ DW_TAG_pointer_type ]
!500 = metadata !{i32 786478, i32 0, metadata !421, metadata !"write", metadata !"write", metadata !"_ZNV11ap_int_baseILi33ELb1ELb1EE5writeERKS0_", metadata !183, i32 1533, metadata !501, i1 false, i1 false, i32 0, i32 0, null, i32 256, i1 false, null, null, i32 0, metadata !195, i32 1533} ; [ DW_TAG_subprogram ]
!501 = metadata !{i32 786453, i32 0, metadata !"", i32 0, i32 0, i64 0, i64 0, i64 0, i32 0, null, metadata !502, i32 0, i32 0} ; [ DW_TAG_subroutine_type ]
!502 = metadata !{null, metadata !499, metadata !441}
!503 = metadata !{i32 786478, i32 0, metadata !421, metadata !"operator=", metadata !"operator=", metadata !"_ZNV11ap_int_baseILi33ELb1ELb1EEaSERVKS0_", metadata !183, i32 1545, metadata !504, i1 false, i1 false, i32 0, i32 0, null, i32 256, i1 false, null, null, i32 0, metadata !195, i32 1545} ; [ DW_TAG_subprogram ]
!504 = metadata !{i32 786453, i32 0, metadata !"", i32 0, i32 0, i64 0, i64 0, i64 0, i32 0, null, metadata !505, i32 0, i32 0} ; [ DW_TAG_subroutine_type ]
!505 = metadata !{null, metadata !499, metadata !448}
!506 = metadata !{i32 786478, i32 0, metadata !421, metadata !"operator=", metadata !"operator=", metadata !"_ZNV11ap_int_baseILi33ELb1ELb1EEaSERKS0_", metadata !183, i32 1554, metadata !501, i1 false, i1 false, i32 0, i32 0, null, i32 256, i1 false, null, null, i32 0, metadata !195, i32 1554} ; [ DW_TAG_subprogram ]
!507 = metadata !{i32 786478, i32 0, metadata !421, metadata !"operator=", metadata !"operator=", metadata !"_ZN11ap_int_baseILi33ELb1ELb1EEaSERVKS0_", metadata !183, i32 1577, metadata !508, i1 false, i1 false, i32 0, i32 0, null, i32 256, i1 false, null, null, i32 0, metadata !195, i32 1577} ; [ DW_TAG_subprogram ]
!508 = metadata !{i32 786453, i32 0, metadata !"", i32 0, i32 0, i64 0, i64 0, i64 0, i32 0, null, metadata !509, i32 0, i32 0} ; [ DW_TAG_subroutine_type ]
!509 = metadata !{metadata !510, metadata !437, metadata !448}
!510 = metadata !{i32 786448, null, null, null, i32 0, i64 0, i64 0, i64 0, i32 0, metadata !421} ; [ DW_TAG_reference_type ]
!511 = metadata !{i32 786478, i32 0, metadata !421, metadata !"operator=", metadata !"operator=", metadata !"_ZN11ap_int_baseILi33ELb1ELb1EEaSERKS0_", metadata !183, i32 1582, metadata !512, i1 false, i1 false, i32 0, i32 0, null, i32 256, i1 false, null, null, i32 0, metadata !195, i32 1582} ; [ DW_TAG_subprogram ]
!512 = metadata !{i32 786453, i32 0, metadata !"", i32 0, i32 0, i64 0, i64 0, i64 0, i32 0, null, metadata !513, i32 0, i32 0} ; [ DW_TAG_subroutine_type ]
!513 = metadata !{metadata !510, metadata !437, metadata !441}
!514 = metadata !{i32 786478, i32 0, metadata !421, metadata !"operator=", metadata !"operator=", metadata !"_ZN11ap_int_baseILi33ELb1ELb1EEaSEPKc", metadata !183, i32 1586, metadata !515, i1 false, i1 false, i32 0, i32 0, null, i32 256, i1 false, null, null, i32 0, metadata !195, i32 1586} ; [ DW_TAG_subprogram ]
!515 = metadata !{i32 786453, i32 0, metadata !"", i32 0, i32 0, i64 0, i64 0, i64 0, i32 0, null, metadata !516, i32 0, i32 0} ; [ DW_TAG_subroutine_type ]
!516 = metadata !{metadata !510, metadata !437, metadata !280}
!517 = metadata !{i32 786478, i32 0, metadata !421, metadata !"set", metadata !"set", metadata !"_ZN11ap_int_baseILi33ELb1ELb1EE3setEPKca", metadata !183, i32 1594, metadata !518, i1 false, i1 false, i32 0, i32 0, null, i32 256, i1 false, null, null, i32 0, metadata !195, i32 1594} ; [ DW_TAG_subprogram ]
!518 = metadata !{i32 786453, i32 0, metadata !"", i32 0, i32 0, i64 0, i64 0, i64 0, i32 0, null, metadata !519, i32 0, i32 0} ; [ DW_TAG_subroutine_type ]
!519 = metadata !{metadata !510, metadata !437, metadata !280, metadata !231}
!520 = metadata !{i32 786478, i32 0, metadata !421, metadata !"operator=", metadata !"operator=", metadata !"_ZN11ap_int_baseILi33ELb1ELb1EEaSEa", metadata !183, i32 1608, metadata !521, i1 false, i1 false, i32 0, i32 0, null, i32 256, i1 false, null, null, i32 0, metadata !195, i32 1608} ; [ DW_TAG_subprogram ]
!521 = metadata !{i32 786453, i32 0, metadata !"", i32 0, i32 0, i64 0, i64 0, i64 0, i32 0, null, metadata !522, i32 0, i32 0} ; [ DW_TAG_subroutine_type ]
!522 = metadata !{metadata !510, metadata !437, metadata !231}
!523 = metadata !{i32 786478, i32 0, metadata !421, metadata !"operator=", metadata !"operator=", metadata !"_ZN11ap_int_baseILi33ELb1ELb1EEaSEh", metadata !183, i32 1609, metadata !524, i1 false, i1 false, i32 0, i32 0, null, i32 256, i1 false, null, null, i32 0, metadata !195, i32 1609} ; [ DW_TAG_subprogram ]
!524 = metadata !{i32 786453, i32 0, metadata !"", i32 0, i32 0, i64 0, i64 0, i64 0, i32 0, null, metadata !525, i32 0, i32 0} ; [ DW_TAG_subroutine_type ]
!525 = metadata !{metadata !510, metadata !437, metadata !235}
!526 = metadata !{i32 786478, i32 0, metadata !421, metadata !"operator=", metadata !"operator=", metadata !"_ZN11ap_int_baseILi33ELb1ELb1EEaSEs", metadata !183, i32 1610, metadata !527, i1 false, i1 false, i32 0, i32 0, null, i32 256, i1 false, null, null, i32 0, metadata !195, i32 1610} ; [ DW_TAG_subprogram ]
!527 = metadata !{i32 786453, i32 0, metadata !"", i32 0, i32 0, i64 0, i64 0, i64 0, i32 0, null, metadata !528, i32 0, i32 0} ; [ DW_TAG_subroutine_type ]
!528 = metadata !{metadata !510, metadata !437, metadata !239}
!529 = metadata !{i32 786478, i32 0, metadata !421, metadata !"operator=", metadata !"operator=", metadata !"_ZN11ap_int_baseILi33ELb1ELb1EEaSEt", metadata !183, i32 1611, metadata !530, i1 false, i1 false, i32 0, i32 0, null, i32 256, i1 false, null, null, i32 0, metadata !195, i32 1611} ; [ DW_TAG_subprogram ]
!530 = metadata !{i32 786453, i32 0, metadata !"", i32 0, i32 0, i64 0, i64 0, i64 0, i32 0, null, metadata !531, i32 0, i32 0} ; [ DW_TAG_subroutine_type ]
!531 = metadata !{metadata !510, metadata !437, metadata !243}
!532 = metadata !{i32 786478, i32 0, metadata !421, metadata !"operator=", metadata !"operator=", metadata !"_ZN11ap_int_baseILi33ELb1ELb1EEaSEi", metadata !183, i32 1612, metadata !533, i1 false, i1 false, i32 0, i32 0, null, i32 256, i1 false, null, null, i32 0, metadata !195, i32 1612} ; [ DW_TAG_subprogram ]
!533 = metadata !{i32 786453, i32 0, metadata !"", i32 0, i32 0, i64 0, i64 0, i64 0, i32 0, null, metadata !534, i32 0, i32 0} ; [ DW_TAG_subroutine_type ]
!534 = metadata !{metadata !510, metadata !437, metadata !204}
!535 = metadata !{i32 786478, i32 0, metadata !421, metadata !"operator=", metadata !"operator=", metadata !"_ZN11ap_int_baseILi33ELb1ELb1EEaSEj", metadata !183, i32 1613, metadata !536, i1 false, i1 false, i32 0, i32 0, null, i32 256, i1 false, null, null, i32 0, metadata !195, i32 1613} ; [ DW_TAG_subprogram ]
!536 = metadata !{i32 786453, i32 0, metadata !"", i32 0, i32 0, i64 0, i64 0, i64 0, i32 0, null, metadata !537, i32 0, i32 0} ; [ DW_TAG_subroutine_type ]
!537 = metadata !{metadata !510, metadata !437, metadata !250}
!538 = metadata !{i32 786478, i32 0, metadata !421, metadata !"operator=", metadata !"operator=", metadata !"_ZN11ap_int_baseILi33ELb1ELb1EEaSEx", metadata !183, i32 1614, metadata !539, i1 false, i1 false, i32 0, i32 0, null, i32 256, i1 false, null, null, i32 0, metadata !195, i32 1614} ; [ DW_TAG_subprogram ]
!539 = metadata !{i32 786453, i32 0, metadata !"", i32 0, i32 0, i64 0, i64 0, i64 0, i32 0, null, metadata !540, i32 0, i32 0} ; [ DW_TAG_subroutine_type ]
!540 = metadata !{metadata !510, metadata !437, metadata !262}
!541 = metadata !{i32 786478, i32 0, metadata !421, metadata !"operator=", metadata !"operator=", metadata !"_ZN11ap_int_baseILi33ELb1ELb1EEaSEy", metadata !183, i32 1615, metadata !542, i1 false, i1 false, i32 0, i32 0, null, i32 256, i1 false, null, null, i32 0, metadata !195, i32 1615} ; [ DW_TAG_subprogram ]
!542 = metadata !{i32 786453, i32 0, metadata !"", i32 0, i32 0, i64 0, i64 0, i64 0, i32 0, null, metadata !543, i32 0, i32 0} ; [ DW_TAG_subroutine_type ]
!543 = metadata !{metadata !510, metadata !437, metadata !267}
!544 = metadata !{i32 786478, i32 0, metadata !421, metadata !"operator long long", metadata !"operator long long", metadata !"_ZNK11ap_int_baseILi33ELb1ELb1EEcvxEv", metadata !183, i32 1653, metadata !545, i1 false, i1 false, i32 0, i32 0, null, i32 256, i1 false, null, null, i32 0, metadata !195, i32 1653} ; [ DW_TAG_subprogram ]
!545 = metadata !{i32 786453, i32 0, metadata !"", i32 0, i32 0, i64 0, i64 0, i64 0, i32 0, null, metadata !546, i32 0, i32 0} ; [ DW_TAG_subroutine_type ]
!546 = metadata !{metadata !547, metadata !552}
!547 = metadata !{i32 786454, metadata !421, metadata !"RetType", metadata !183, i32 1402, i64 0, i64 0, i64 0, i32 0, metadata !548} ; [ DW_TAG_typedef ]
!548 = metadata !{i32 786454, metadata !549, metadata !"Type", metadata !183, i32 1359, i64 0, i64 0, i64 0, i32 0, metadata !262} ; [ DW_TAG_typedef ]
!549 = metadata !{i32 786434, null, metadata !"retval<5, true>", metadata !183, i32 1358, i64 8, i64 8, i32 0, i32 0, null, metadata !340, i32 0, null, metadata !550} ; [ DW_TAG_class_type ]
!550 = metadata !{metadata !551, metadata !205}
!551 = metadata !{i32 786480, null, metadata !"_AP_N", metadata !204, i64 5, null, i32 0, i32 0} ; [ DW_TAG_template_value_parameter ]
!552 = metadata !{i32 786447, i32 0, metadata !"", i32 0, i32 0, i64 32, i64 32, i64 0, i32 64, metadata !442} ; [ DW_TAG_pointer_type ]
!553 = metadata !{i32 786478, i32 0, metadata !421, metadata !"to_bool", metadata !"to_bool", metadata !"_ZNK11ap_int_baseILi33ELb1ELb1EE7to_boolEv", metadata !183, i32 1659, metadata !554, i1 false, i1 false, i32 0, i32 0, null, i32 256, i1 false, null, null, i32 0, metadata !195, i32 1659} ; [ DW_TAG_subprogram ]
!554 = metadata !{i32 786453, i32 0, metadata !"", i32 0, i32 0, i64 0, i64 0, i64 0, i32 0, null, metadata !555, i32 0, i32 0} ; [ DW_TAG_subroutine_type ]
!555 = metadata !{metadata !206, metadata !552}
!556 = metadata !{i32 786478, i32 0, metadata !421, metadata !"to_uchar", metadata !"to_uchar", metadata !"_ZNK11ap_int_baseILi33ELb1ELb1EE8to_ucharEv", metadata !183, i32 1660, metadata !557, i1 false, i1 false, i32 0, i32 0, null, i32 256, i1 false, null, null, i32 0, metadata !195, i32 1660} ; [ DW_TAG_subprogram ]
!557 = metadata !{i32 786453, i32 0, metadata !"", i32 0, i32 0, i64 0, i64 0, i64 0, i32 0, null, metadata !558, i32 0, i32 0} ; [ DW_TAG_subroutine_type ]
!558 = metadata !{metadata !235, metadata !552}
!559 = metadata !{i32 786478, i32 0, metadata !421, metadata !"to_char", metadata !"to_char", metadata !"_ZNK11ap_int_baseILi33ELb1ELb1EE7to_charEv", metadata !183, i32 1661, metadata !560, i1 false, i1 false, i32 0, i32 0, null, i32 256, i1 false, null, null, i32 0, metadata !195, i32 1661} ; [ DW_TAG_subprogram ]
!560 = metadata !{i32 786453, i32 0, metadata !"", i32 0, i32 0, i64 0, i64 0, i64 0, i32 0, null, metadata !561, i32 0, i32 0} ; [ DW_TAG_subroutine_type ]
!561 = metadata !{metadata !231, metadata !552}
!562 = metadata !{i32 786478, i32 0, metadata !421, metadata !"to_ushort", metadata !"to_ushort", metadata !"_ZNK11ap_int_baseILi33ELb1ELb1EE9to_ushortEv", metadata !183, i32 1662, metadata !563, i1 false, i1 false, i32 0, i32 0, null, i32 256, i1 false, null, null, i32 0, metadata !195, i32 1662} ; [ DW_TAG_subprogram ]
!563 = metadata !{i32 786453, i32 0, metadata !"", i32 0, i32 0, i64 0, i64 0, i64 0, i32 0, null, metadata !564, i32 0, i32 0} ; [ DW_TAG_subroutine_type ]
!564 = metadata !{metadata !243, metadata !552}
!565 = metadata !{i32 786478, i32 0, metadata !421, metadata !"to_short", metadata !"to_short", metadata !"_ZNK11ap_int_baseILi33ELb1ELb1EE8to_shortEv", metadata !183, i32 1663, metadata !566, i1 false, i1 false, i32 0, i32 0, null, i32 256, i1 false, null, null, i32 0, metadata !195, i32 1663} ; [ DW_TAG_subprogram ]
!566 = metadata !{i32 786453, i32 0, metadata !"", i32 0, i32 0, i64 0, i64 0, i64 0, i32 0, null, metadata !567, i32 0, i32 0} ; [ DW_TAG_subroutine_type ]
!567 = metadata !{metadata !239, metadata !552}
!568 = metadata !{i32 786478, i32 0, metadata !421, metadata !"to_int", metadata !"to_int", metadata !"_ZNK11ap_int_baseILi33ELb1ELb1EE6to_intEv", metadata !183, i32 1664, metadata !569, i1 false, i1 false, i32 0, i32 0, null, i32 256, i1 false, null, null, i32 0, metadata !195, i32 1664} ; [ DW_TAG_subprogram ]
!569 = metadata !{i32 786453, i32 0, metadata !"", i32 0, i32 0, i64 0, i64 0, i64 0, i32 0, null, metadata !570, i32 0, i32 0} ; [ DW_TAG_subroutine_type ]
!570 = metadata !{metadata !204, metadata !552}
!571 = metadata !{i32 786478, i32 0, metadata !421, metadata !"to_uint", metadata !"to_uint", metadata !"_ZNK11ap_int_baseILi33ELb1ELb1EE7to_uintEv", metadata !183, i32 1665, metadata !572, i1 false, i1 false, i32 0, i32 0, null, i32 256, i1 false, null, null, i32 0, metadata !195, i32 1665} ; [ DW_TAG_subprogram ]
!572 = metadata !{i32 786453, i32 0, metadata !"", i32 0, i32 0, i64 0, i64 0, i64 0, i32 0, null, metadata !573, i32 0, i32 0} ; [ DW_TAG_subroutine_type ]
!573 = metadata !{metadata !250, metadata !552}
!574 = metadata !{i32 786478, i32 0, metadata !421, metadata !"to_long", metadata !"to_long", metadata !"_ZNK11ap_int_baseILi33ELb1ELb1EE7to_longEv", metadata !183, i32 1666, metadata !575, i1 false, i1 false, i32 0, i32 0, null, i32 256, i1 false, null, null, i32 0, metadata !195, i32 1666} ; [ DW_TAG_subprogram ]
!575 = metadata !{i32 786453, i32 0, metadata !"", i32 0, i32 0, i64 0, i64 0, i64 0, i32 0, null, metadata !576, i32 0, i32 0} ; [ DW_TAG_subroutine_type ]
!576 = metadata !{metadata !254, metadata !552}
!577 = metadata !{i32 786478, i32 0, metadata !421, metadata !"to_ulong", metadata !"to_ulong", metadata !"_ZNK11ap_int_baseILi33ELb1ELb1EE8to_ulongEv", metadata !183, i32 1667, metadata !578, i1 false, i1 false, i32 0, i32 0, null, i32 256, i1 false, null, null, i32 0, metadata !195, i32 1667} ; [ DW_TAG_subprogram ]
!578 = metadata !{i32 786453, i32 0, metadata !"", i32 0, i32 0, i64 0, i64 0, i64 0, i32 0, null, metadata !579, i32 0, i32 0} ; [ DW_TAG_subroutine_type ]
!579 = metadata !{metadata !258, metadata !552}
!580 = metadata !{i32 786478, i32 0, metadata !421, metadata !"to_int64", metadata !"to_int64", metadata !"_ZNK11ap_int_baseILi33ELb1ELb1EE8to_int64Ev", metadata !183, i32 1668, metadata !581, i1 false, i1 false, i32 0, i32 0, null, i32 256, i1 false, null, null, i32 0, metadata !195, i32 1668} ; [ DW_TAG_subprogram ]
!581 = metadata !{i32 786453, i32 0, metadata !"", i32 0, i32 0, i64 0, i64 0, i64 0, i32 0, null, metadata !582, i32 0, i32 0} ; [ DW_TAG_subroutine_type ]
!582 = metadata !{metadata !262, metadata !552}
!583 = metadata !{i32 786478, i32 0, metadata !421, metadata !"to_uint64", metadata !"to_uint64", metadata !"_ZNK11ap_int_baseILi33ELb1ELb1EE9to_uint64Ev", metadata !183, i32 1669, metadata !584, i1 false, i1 false, i32 0, i32 0, null, i32 256, i1 false, null, null, i32 0, metadata !195, i32 1669} ; [ DW_TAG_subprogram ]
!584 = metadata !{i32 786453, i32 0, metadata !"", i32 0, i32 0, i64 0, i64 0, i64 0, i32 0, null, metadata !585, i32 0, i32 0} ; [ DW_TAG_subroutine_type ]
!585 = metadata !{metadata !267, metadata !552}
!586 = metadata !{i32 786478, i32 0, metadata !421, metadata !"to_double", metadata !"to_double", metadata !"_ZNK11ap_int_baseILi33ELb1ELb1EE9to_doubleEv", metadata !183, i32 1670, metadata !587, i1 false, i1 false, i32 0, i32 0, null, i32 256, i1 false, null, null, i32 0, metadata !195, i32 1670} ; [ DW_TAG_subprogram ]
!587 = metadata !{i32 786453, i32 0, metadata !"", i32 0, i32 0, i64 0, i64 0, i64 0, i32 0, null, metadata !588, i32 0, i32 0} ; [ DW_TAG_subroutine_type ]
!588 = metadata !{metadata !276, metadata !552}
!589 = metadata !{i32 786478, i32 0, metadata !421, metadata !"length", metadata !"length", metadata !"_ZNK11ap_int_baseILi33ELb1ELb1EE6lengthEv", metadata !183, i32 1684, metadata !569, i1 false, i1 false, i32 0, i32 0, null, i32 256, i1 false, null, null, i32 0, metadata !195, i32 1684} ; [ DW_TAG_subprogram ]
!590 = metadata !{i32 786478, i32 0, metadata !421, metadata !"length", metadata !"length", metadata !"_ZNVK11ap_int_baseILi33ELb1ELb1EE6lengthEv", metadata !183, i32 1685, metadata !591, i1 false, i1 false, i32 0, i32 0, null, i32 256, i1 false, null, null, i32 0, metadata !195, i32 1685} ; [ DW_TAG_subprogram ]
!591 = metadata !{i32 786453, i32 0, metadata !"", i32 0, i32 0, i64 0, i64 0, i64 0, i32 0, null, metadata !592, i32 0, i32 0} ; [ DW_TAG_subroutine_type ]
!592 = metadata !{metadata !204, metadata !593}
!593 = metadata !{i32 786447, i32 0, metadata !"", i32 0, i32 0, i64 32, i64 32, i64 0, i32 64, metadata !449} ; [ DW_TAG_pointer_type ]
!594 = metadata !{i32 786478, i32 0, metadata !421, metadata !"reverse", metadata !"reverse", metadata !"_ZN11ap_int_baseILi33ELb1ELb1EE7reverseEv", metadata !183, i32 1690, metadata !595, i1 false, i1 false, i32 0, i32 0, null, i32 256, i1 false, null, null, i32 0, metadata !195, i32 1690} ; [ DW_TAG_subprogram ]
!595 = metadata !{i32 786453, i32 0, metadata !"", i32 0, i32 0, i64 0, i64 0, i64 0, i32 0, null, metadata !596, i32 0, i32 0} ; [ DW_TAG_subroutine_type ]
!596 = metadata !{metadata !510, metadata !437}
!597 = metadata !{i32 786478, i32 0, metadata !421, metadata !"iszero", metadata !"iszero", metadata !"_ZNK11ap_int_baseILi33ELb1ELb1EE6iszeroEv", metadata !183, i32 1696, metadata !554, i1 false, i1 false, i32 0, i32 0, null, i32 256, i1 false, null, null, i32 0, metadata !195, i32 1696} ; [ DW_TAG_subprogram ]
!598 = metadata !{i32 786478, i32 0, metadata !421, metadata !"is_zero", metadata !"is_zero", metadata !"_ZNK11ap_int_baseILi33ELb1ELb1EE7is_zeroEv", metadata !183, i32 1701, metadata !554, i1 false, i1 false, i32 0, i32 0, null, i32 256, i1 false, null, null, i32 0, metadata !195, i32 1701} ; [ DW_TAG_subprogram ]
!599 = metadata !{i32 786478, i32 0, metadata !421, metadata !"sign", metadata !"sign", metadata !"_ZNK11ap_int_baseILi33ELb1ELb1EE4signEv", metadata !183, i32 1706, metadata !554, i1 false, i1 false, i32 0, i32 0, null, i32 256, i1 false, null, null, i32 0, metadata !195, i32 1706} ; [ DW_TAG_subprogram ]
!600 = metadata !{i32 786478, i32 0, metadata !421, metadata !"clear", metadata !"clear", metadata !"_ZN11ap_int_baseILi33ELb1ELb1EE5clearEi", metadata !183, i32 1714, metadata !467, i1 false, i1 false, i32 0, i32 0, null, i32 256, i1 false, null, null, i32 0, metadata !195, i32 1714} ; [ DW_TAG_subprogram ]
!601 = metadata !{i32 786478, i32 0, metadata !421, metadata !"invert", metadata !"invert", metadata !"_ZN11ap_int_baseILi33ELb1ELb1EE6invertEi", metadata !183, i32 1720, metadata !467, i1 false, i1 false, i32 0, i32 0, null, i32 256, i1 false, null, null, i32 0, metadata !195, i32 1720} ; [ DW_TAG_subprogram ]
!602 = metadata !{i32 786478, i32 0, metadata !421, metadata !"test", metadata !"test", metadata !"_ZNK11ap_int_baseILi33ELb1ELb1EE4testEi", metadata !183, i32 1728, metadata !603, i1 false, i1 false, i32 0, i32 0, null, i32 256, i1 false, null, null, i32 0, metadata !195, i32 1728} ; [ DW_TAG_subprogram ]
!603 = metadata !{i32 786453, i32 0, metadata !"", i32 0, i32 0, i64 0, i64 0, i64 0, i32 0, null, metadata !604, i32 0, i32 0} ; [ DW_TAG_subroutine_type ]
!604 = metadata !{metadata !206, metadata !552, metadata !204}
!605 = metadata !{i32 786478, i32 0, metadata !421, metadata !"set", metadata !"set", metadata !"_ZN11ap_int_baseILi33ELb1ELb1EE3setEi", metadata !183, i32 1734, metadata !467, i1 false, i1 false, i32 0, i32 0, null, i32 256, i1 false, null, null, i32 0, metadata !195, i32 1734} ; [ DW_TAG_subprogram ]
!606 = metadata !{i32 786478, i32 0, metadata !421, metadata !"set", metadata !"set", metadata !"_ZN11ap_int_baseILi33ELb1ELb1EE3setEib", metadata !183, i32 1740, metadata !607, i1 false, i1 false, i32 0, i32 0, null, i32 256, i1 false, null, null, i32 0, metadata !195, i32 1740} ; [ DW_TAG_subprogram ]
!607 = metadata !{i32 786453, i32 0, metadata !"", i32 0, i32 0, i64 0, i64 0, i64 0, i32 0, null, metadata !608, i32 0, i32 0} ; [ DW_TAG_subroutine_type ]
!608 = metadata !{null, metadata !437, metadata !204, metadata !206}
!609 = metadata !{i32 786478, i32 0, metadata !421, metadata !"lrotate", metadata !"lrotate", metadata !"_ZN11ap_int_baseILi33ELb1ELb1EE7lrotateEi", metadata !183, i32 1747, metadata !467, i1 false, i1 false, i32 0, i32 0, null, i32 256, i1 false, null, null, i32 0, metadata !195, i32 1747} ; [ DW_TAG_subprogram ]
!610 = metadata !{i32 786478, i32 0, metadata !421, metadata !"rrotate", metadata !"rrotate", metadata !"_ZN11ap_int_baseILi33ELb1ELb1EE7rrotateEi", metadata !183, i32 1756, metadata !467, i1 false, i1 false, i32 0, i32 0, null, i32 256, i1 false, null, null, i32 0, metadata !195, i32 1756} ; [ DW_TAG_subprogram ]
!611 = metadata !{i32 786478, i32 0, metadata !421, metadata !"set_bit", metadata !"set_bit", metadata !"_ZN11ap_int_baseILi33ELb1ELb1EE7set_bitEib", metadata !183, i32 1764, metadata !607, i1 false, i1 false, i32 0, i32 0, null, i32 256, i1 false, null, null, i32 0, metadata !195, i32 1764} ; [ DW_TAG_subprogram ]
!612 = metadata !{i32 786478, i32 0, metadata !421, metadata !"get_bit", metadata !"get_bit", metadata !"_ZNK11ap_int_baseILi33ELb1ELb1EE7get_bitEi", metadata !183, i32 1769, metadata !603, i1 false, i1 false, i32 0, i32 0, null, i32 256, i1 false, null, null, i32 0, metadata !195, i32 1769} ; [ DW_TAG_subprogram ]
!613 = metadata !{i32 786478, i32 0, metadata !421, metadata !"b_not", metadata !"b_not", metadata !"_ZN11ap_int_baseILi33ELb1ELb1EE5b_notEv", metadata !183, i32 1774, metadata !435, i1 false, i1 false, i32 0, i32 0, null, i32 256, i1 false, null, null, i32 0, metadata !195, i32 1774} ; [ DW_TAG_subprogram ]
!614 = metadata !{i32 786478, i32 0, metadata !421, metadata !"countLeadingZeros", metadata !"countLeadingZeros", metadata !"_ZN11ap_int_baseILi33ELb1ELb1EE17countLeadingZerosEv", metadata !183, i32 1781, metadata !615, i1 false, i1 false, i32 0, i32 0, null, i32 256, i1 false, null, null, i32 0, metadata !195, i32 1781} ; [ DW_TAG_subprogram ]
!615 = metadata !{i32 786453, i32 0, metadata !"", i32 0, i32 0, i64 0, i64 0, i64 0, i32 0, null, metadata !616, i32 0, i32 0} ; [ DW_TAG_subroutine_type ]
!616 = metadata !{metadata !204, metadata !437}
!617 = metadata !{i32 786478, i32 0, metadata !421, metadata !"operator++", metadata !"operator++", metadata !"_ZN11ap_int_baseILi33ELb1ELb1EEppEv", metadata !183, i32 1838, metadata !595, i1 false, i1 false, i32 0, i32 0, null, i32 256, i1 false, null, null, i32 0, metadata !195, i32 1838} ; [ DW_TAG_subprogram ]
!618 = metadata !{i32 786478, i32 0, metadata !421, metadata !"operator--", metadata !"operator--", metadata !"_ZN11ap_int_baseILi33ELb1ELb1EEmmEv", metadata !183, i32 1842, metadata !595, i1 false, i1 false, i32 0, i32 0, null, i32 256, i1 false, null, null, i32 0, metadata !195, i32 1842} ; [ DW_TAG_subprogram ]
!619 = metadata !{i32 786478, i32 0, metadata !421, metadata !"operator++", metadata !"operator++", metadata !"_ZN11ap_int_baseILi33ELb1ELb1EEppEi", metadata !183, i32 1850, metadata !620, i1 false, i1 false, i32 0, i32 0, null, i32 256, i1 false, null, null, i32 0, metadata !195, i32 1850} ; [ DW_TAG_subprogram ]
!620 = metadata !{i32 786453, i32 0, metadata !"", i32 0, i32 0, i64 0, i64 0, i64 0, i32 0, null, metadata !621, i32 0, i32 0} ; [ DW_TAG_subroutine_type ]
!621 = metadata !{metadata !442, metadata !437, metadata !204}
!622 = metadata !{i32 786478, i32 0, metadata !421, metadata !"operator--", metadata !"operator--", metadata !"_ZN11ap_int_baseILi33ELb1ELb1EEmmEi", metadata !183, i32 1855, metadata !620, i1 false, i1 false, i32 0, i32 0, null, i32 256, i1 false, null, null, i32 0, metadata !195, i32 1855} ; [ DW_TAG_subprogram ]
!623 = metadata !{i32 786478, i32 0, metadata !421, metadata !"operator+", metadata !"operator+", metadata !"_ZNK11ap_int_baseILi33ELb1ELb1EEpsEv", metadata !183, i32 1864, metadata !624, i1 false, i1 false, i32 0, i32 0, null, i32 256, i1 false, null, null, i32 0, metadata !195, i32 1864} ; [ DW_TAG_subprogram ]
!624 = metadata !{i32 786453, i32 0, metadata !"", i32 0, i32 0, i64 0, i64 0, i64 0, i32 0, null, metadata !625, i32 0, i32 0} ; [ DW_TAG_subroutine_type ]
!625 = metadata !{metadata !421, metadata !552}
!626 = metadata !{i32 786478, i32 0, metadata !421, metadata !"operator!", metadata !"operator!", metadata !"_ZNK11ap_int_baseILi33ELb1ELb1EEntEv", metadata !183, i32 1870, metadata !554, i1 false, i1 false, i32 0, i32 0, null, i32 256, i1 false, null, null, i32 0, metadata !195, i32 1870} ; [ DW_TAG_subprogram ]
!627 = metadata !{i32 786478, i32 0, metadata !421, metadata !"operator-", metadata !"operator-", metadata !"_ZNK11ap_int_baseILi33ELb1ELb1EEngEv", metadata !183, i32 1875, metadata !628, i1 false, i1 false, i32 0, i32 0, null, i32 256, i1 false, null, null, i32 0, metadata !195, i32 1875} ; [ DW_TAG_subprogram ]
!628 = metadata !{i32 786453, i32 0, metadata !"", i32 0, i32 0, i64 0, i64 0, i64 0, i32 0, null, metadata !629, i32 0, i32 0} ; [ DW_TAG_subroutine_type ]
!629 = metadata !{metadata !630, metadata !552}
!630 = metadata !{i32 786434, null, metadata !"ap_int_base<34, true, true>", metadata !183, i32 650, i32 0, i32 0, i32 0, i32 4, null, null, i32 0} ; [ DW_TAG_class_type ]
!631 = metadata !{i32 786478, i32 0, metadata !421, metadata !"range", metadata !"range", metadata !"_ZN11ap_int_baseILi33ELb1ELb1EE5rangeEii", metadata !183, i32 2005, metadata !632, i1 false, i1 false, i32 0, i32 0, null, i32 256, i1 false, null, null, i32 0, metadata !195, i32 2005} ; [ DW_TAG_subprogram ]
!632 = metadata !{i32 786453, i32 0, metadata !"", i32 0, i32 0, i64 0, i64 0, i64 0, i32 0, null, metadata !633, i32 0, i32 0} ; [ DW_TAG_subroutine_type ]
!633 = metadata !{metadata !634, metadata !437, metadata !204, metadata !204}
!634 = metadata !{i32 786434, null, metadata !"ap_range_ref<33, true>", metadata !183, i32 923, i32 0, i32 0, i32 0, i32 4, null, null, i32 0} ; [ DW_TAG_class_type ]
!635 = metadata !{i32 786478, i32 0, metadata !421, metadata !"operator()", metadata !"operator()", metadata !"_ZN11ap_int_baseILi33ELb1ELb1EEclEii", metadata !183, i32 2011, metadata !632, i1 false, i1 false, i32 0, i32 0, null, i32 256, i1 false, null, null, i32 0, metadata !195, i32 2011} ; [ DW_TAG_subprogram ]
!636 = metadata !{i32 786478, i32 0, metadata !421, metadata !"range", metadata !"range", metadata !"_ZNK11ap_int_baseILi33ELb1ELb1EE5rangeEii", metadata !183, i32 2017, metadata !637, i1 false, i1 false, i32 0, i32 0, null, i32 256, i1 false, null, null, i32 0, metadata !195, i32 2017} ; [ DW_TAG_subprogram ]
!637 = metadata !{i32 786453, i32 0, metadata !"", i32 0, i32 0, i64 0, i64 0, i64 0, i32 0, null, metadata !638, i32 0, i32 0} ; [ DW_TAG_subroutine_type ]
!638 = metadata !{metadata !634, metadata !552, metadata !204, metadata !204}
!639 = metadata !{i32 786478, i32 0, metadata !421, metadata !"operator()", metadata !"operator()", metadata !"_ZNK11ap_int_baseILi33ELb1ELb1EEclEii", metadata !183, i32 2023, metadata !637, i1 false, i1 false, i32 0, i32 0, null, i32 256, i1 false, null, null, i32 0, metadata !195, i32 2023} ; [ DW_TAG_subprogram ]
!640 = metadata !{i32 786478, i32 0, metadata !421, metadata !"operator[]", metadata !"operator[]", metadata !"_ZN11ap_int_baseILi33ELb1ELb1EEixEi", metadata !183, i32 2042, metadata !641, i1 false, i1 false, i32 0, i32 0, null, i32 256, i1 false, null, null, i32 0, metadata !195, i32 2042} ; [ DW_TAG_subprogram ]
!641 = metadata !{i32 786453, i32 0, metadata !"", i32 0, i32 0, i64 0, i64 0, i64 0, i32 0, null, metadata !642, i32 0, i32 0} ; [ DW_TAG_subroutine_type ]
!642 = metadata !{metadata !643, metadata !437, metadata !204}
!643 = metadata !{i32 786434, null, metadata !"ap_bit_ref<33, true>", metadata !183, i32 1193, i64 64, i64 32, i32 0, i32 0, null, metadata !644, i32 0, null, metadata !677} ; [ DW_TAG_class_type ]
!644 = metadata !{metadata !645, metadata !646, metadata !647, metadata !653, metadata !657, metadata !661, metadata !662, metadata !666, metadata !669, metadata !670, metadata !673, metadata !674}
!645 = metadata !{i32 786445, metadata !643, metadata !"d_bv", metadata !183, i32 1194, i64 32, i64 32, i64 0, i32 0, metadata !510} ; [ DW_TAG_member ]
!646 = metadata !{i32 786445, metadata !643, metadata !"d_index", metadata !183, i32 1195, i64 32, i64 32, i64 32, i32 0, metadata !204} ; [ DW_TAG_member ]
!647 = metadata !{i32 786478, i32 0, metadata !643, metadata !"ap_bit_ref", metadata !"ap_bit_ref", metadata !"", metadata !183, i32 1198, metadata !648, i1 false, i1 false, i32 0, i32 0, null, i32 256, i1 false, null, null, i32 0, metadata !195, i32 1198} ; [ DW_TAG_subprogram ]
!648 = metadata !{i32 786453, i32 0, metadata !"", i32 0, i32 0, i64 0, i64 0, i64 0, i32 0, null, metadata !649, i32 0, i32 0} ; [ DW_TAG_subroutine_type ]
!649 = metadata !{null, metadata !650, metadata !651}
!650 = metadata !{i32 786447, i32 0, metadata !"", i32 0, i32 0, i64 32, i64 32, i64 0, i32 64, metadata !643} ; [ DW_TAG_pointer_type ]
!651 = metadata !{i32 786448, null, null, null, i32 0, i64 0, i64 0, i64 0, i32 0, metadata !652} ; [ DW_TAG_reference_type ]
!652 = metadata !{i32 786470, null, metadata !"", null, i32 0, i64 0, i64 0, i64 0, i32 0, metadata !643} ; [ DW_TAG_const_type ]
!653 = metadata !{i32 786478, i32 0, metadata !643, metadata !"ap_bit_ref", metadata !"ap_bit_ref", metadata !"", metadata !183, i32 1201, metadata !654, i1 false, i1 false, i32 0, i32 0, null, i32 256, i1 false, null, null, i32 0, metadata !195, i32 1201} ; [ DW_TAG_subprogram ]
!654 = metadata !{i32 786453, i32 0, metadata !"", i32 0, i32 0, i64 0, i64 0, i64 0, i32 0, null, metadata !655, i32 0, i32 0} ; [ DW_TAG_subroutine_type ]
!655 = metadata !{null, metadata !650, metadata !656, metadata !204}
!656 = metadata !{i32 786447, null, metadata !"", null, i32 0, i64 32, i64 32, i64 0, i32 0, metadata !421} ; [ DW_TAG_pointer_type ]
!657 = metadata !{i32 786478, i32 0, metadata !643, metadata !"operator _Bool", metadata !"operator _Bool", metadata !"_ZNK10ap_bit_refILi33ELb1EEcvbEv", metadata !183, i32 1203, metadata !658, i1 false, i1 false, i32 0, i32 0, null, i32 256, i1 false, null, null, i32 0, metadata !195, i32 1203} ; [ DW_TAG_subprogram ]
!658 = metadata !{i32 786453, i32 0, metadata !"", i32 0, i32 0, i64 0, i64 0, i64 0, i32 0, null, metadata !659, i32 0, i32 0} ; [ DW_TAG_subroutine_type ]
!659 = metadata !{metadata !206, metadata !660}
!660 = metadata !{i32 786447, i32 0, metadata !"", i32 0, i32 0, i64 32, i64 32, i64 0, i32 64, metadata !652} ; [ DW_TAG_pointer_type ]
!661 = metadata !{i32 786478, i32 0, metadata !643, metadata !"to_bool", metadata !"to_bool", metadata !"_ZNK10ap_bit_refILi33ELb1EE7to_boolEv", metadata !183, i32 1204, metadata !658, i1 false, i1 false, i32 0, i32 0, null, i32 256, i1 false, null, null, i32 0, metadata !195, i32 1204} ; [ DW_TAG_subprogram ]
!662 = metadata !{i32 786478, i32 0, metadata !643, metadata !"operator=", metadata !"operator=", metadata !"_ZN10ap_bit_refILi33ELb1EEaSEy", metadata !183, i32 1206, metadata !663, i1 false, i1 false, i32 0, i32 0, null, i32 256, i1 false, null, null, i32 0, metadata !195, i32 1206} ; [ DW_TAG_subprogram ]
!663 = metadata !{i32 786453, i32 0, metadata !"", i32 0, i32 0, i64 0, i64 0, i64 0, i32 0, null, metadata !664, i32 0, i32 0} ; [ DW_TAG_subroutine_type ]
!664 = metadata !{metadata !665, metadata !650, metadata !268}
!665 = metadata !{i32 786448, null, null, null, i32 0, i64 0, i64 0, i64 0, i32 0, metadata !643} ; [ DW_TAG_reference_type ]
!666 = metadata !{i32 786478, i32 0, metadata !643, metadata !"operator=", metadata !"operator=", metadata !"_ZN10ap_bit_refILi33ELb1EEaSERKS0_", metadata !183, i32 1226, metadata !667, i1 false, i1 false, i32 0, i32 0, null, i32 256, i1 false, null, null, i32 0, metadata !195, i32 1226} ; [ DW_TAG_subprogram ]
!667 = metadata !{i32 786453, i32 0, metadata !"", i32 0, i32 0, i64 0, i64 0, i64 0, i32 0, null, metadata !668, i32 0, i32 0} ; [ DW_TAG_subroutine_type ]
!668 = metadata !{metadata !665, metadata !650, metadata !651}
!669 = metadata !{i32 786478, i32 0, metadata !643, metadata !"get", metadata !"get", metadata !"_ZNK10ap_bit_refILi33ELb1EE3getEv", metadata !183, i32 1334, metadata !658, i1 false, i1 false, i32 0, i32 0, null, i32 256, i1 false, null, null, i32 0, metadata !195, i32 1334} ; [ DW_TAG_subprogram ]
!670 = metadata !{i32 786478, i32 0, metadata !643, metadata !"get", metadata !"get", metadata !"_ZN10ap_bit_refILi33ELb1EE3getEv", metadata !183, i32 1338, metadata !671, i1 false, i1 false, i32 0, i32 0, null, i32 256, i1 false, null, null, i32 0, metadata !195, i32 1338} ; [ DW_TAG_subprogram ]
!671 = metadata !{i32 786453, i32 0, metadata !"", i32 0, i32 0, i64 0, i64 0, i64 0, i32 0, null, metadata !672, i32 0, i32 0} ; [ DW_TAG_subroutine_type ]
!672 = metadata !{metadata !206, metadata !650}
!673 = metadata !{i32 786478, i32 0, metadata !643, metadata !"operator~", metadata !"operator~", metadata !"_ZNK10ap_bit_refILi33ELb1EEcoEv", metadata !183, i32 1347, metadata !658, i1 false, i1 false, i32 0, i32 0, null, i32 256, i1 false, null, null, i32 0, metadata !195, i32 1347} ; [ DW_TAG_subprogram ]
!674 = metadata !{i32 786478, i32 0, metadata !643, metadata !"length", metadata !"length", metadata !"_ZNK10ap_bit_refILi33ELb1EE6lengthEv", metadata !183, i32 1352, metadata !675, i1 false, i1 false, i32 0, i32 0, null, i32 256, i1 false, null, null, i32 0, metadata !195, i32 1352} ; [ DW_TAG_subprogram ]
!675 = metadata !{i32 786453, i32 0, metadata !"", i32 0, i32 0, i64 0, i64 0, i64 0, i32 0, null, metadata !676, i32 0, i32 0} ; [ DW_TAG_subroutine_type ]
!676 = metadata !{metadata !204, metadata !660}
!677 = metadata !{metadata !678, metadata !205}
!678 = metadata !{i32 786480, null, metadata !"_AP_W", metadata !204, i64 33, null, i32 0, i32 0} ; [ DW_TAG_template_value_parameter ]
!679 = metadata !{i32 786478, i32 0, metadata !421, metadata !"operator[]", metadata !"operator[]", metadata !"_ZNK11ap_int_baseILi33ELb1ELb1EEixEi", metadata !183, i32 2056, metadata !603, i1 false, i1 false, i32 0, i32 0, null, i32 256, i1 false, null, null, i32 0, metadata !195, i32 2056} ; [ DW_TAG_subprogram ]
!680 = metadata !{i32 786478, i32 0, metadata !421, metadata !"bit", metadata !"bit", metadata !"_ZN11ap_int_baseILi33ELb1ELb1EE3bitEi", metadata !183, i32 2070, metadata !641, i1 false, i1 false, i32 0, i32 0, null, i32 256, i1 false, null, null, i32 0, metadata !195, i32 2070} ; [ DW_TAG_subprogram ]
!681 = metadata !{i32 786478, i32 0, metadata !421, metadata !"bit", metadata !"bit", metadata !"_ZNK11ap_int_baseILi33ELb1ELb1EE3bitEi", metadata !183, i32 2084, metadata !603, i1 false, i1 false, i32 0, i32 0, null, i32 256, i1 false, null, null, i32 0, metadata !195, i32 2084} ; [ DW_TAG_subprogram ]
!682 = metadata !{i32 786478, i32 0, metadata !421, metadata !"and_reduce", metadata !"and_reduce", metadata !"_ZN11ap_int_baseILi33ELb1ELb1EE10and_reduceEv", metadata !183, i32 2264, metadata !683, i1 false, i1 false, i32 0, i32 0, null, i32 256, i1 false, null, null, i32 0, metadata !195, i32 2264} ; [ DW_TAG_subprogram ]
!683 = metadata !{i32 786453, i32 0, metadata !"", i32 0, i32 0, i64 0, i64 0, i64 0, i32 0, null, metadata !684, i32 0, i32 0} ; [ DW_TAG_subroutine_type ]
!684 = metadata !{metadata !206, metadata !437}
!685 = metadata !{i32 786478, i32 0, metadata !421, metadata !"nand_reduce", metadata !"nand_reduce", metadata !"_ZN11ap_int_baseILi33ELb1ELb1EE11nand_reduceEv", metadata !183, i32 2267, metadata !683, i1 false, i1 false, i32 0, i32 0, null, i32 256, i1 false, null, null, i32 0, metadata !195, i32 2267} ; [ DW_TAG_subprogram ]
!686 = metadata !{i32 786478, i32 0, metadata !421, metadata !"or_reduce", metadata !"or_reduce", metadata !"_ZN11ap_int_baseILi33ELb1ELb1EE9or_reduceEv", metadata !183, i32 2270, metadata !683, i1 false, i1 false, i32 0, i32 0, null, i32 256, i1 false, null, null, i32 0, metadata !195, i32 2270} ; [ DW_TAG_subprogram ]
!687 = metadata !{i32 786478, i32 0, metadata !421, metadata !"nor_reduce", metadata !"nor_reduce", metadata !"_ZN11ap_int_baseILi33ELb1ELb1EE10nor_reduceEv", metadata !183, i32 2273, metadata !683, i1 false, i1 false, i32 0, i32 0, null, i32 256, i1 false, null, null, i32 0, metadata !195, i32 2273} ; [ DW_TAG_subprogram ]
!688 = metadata !{i32 786478, i32 0, metadata !421, metadata !"xor_reduce", metadata !"xor_reduce", metadata !"_ZN11ap_int_baseILi33ELb1ELb1EE10xor_reduceEv", metadata !183, i32 2276, metadata !683, i1 false, i1 false, i32 0, i32 0, null, i32 256, i1 false, null, null, i32 0, metadata !195, i32 2276} ; [ DW_TAG_subprogram ]
!689 = metadata !{i32 786478, i32 0, metadata !421, metadata !"xnor_reduce", metadata !"xnor_reduce", metadata !"_ZN11ap_int_baseILi33ELb1ELb1EE11xnor_reduceEv", metadata !183, i32 2279, metadata !683, i1 false, i1 false, i32 0, i32 0, null, i32 256, i1 false, null, null, i32 0, metadata !195, i32 2279} ; [ DW_TAG_subprogram ]
!690 = metadata !{i32 786478, i32 0, metadata !421, metadata !"and_reduce", metadata !"and_reduce", metadata !"_ZNK11ap_int_baseILi33ELb1ELb1EE10and_reduceEv", metadata !183, i32 2283, metadata !554, i1 false, i1 false, i32 0, i32 0, null, i32 256, i1 false, null, null, i32 0, metadata !195, i32 2283} ; [ DW_TAG_subprogram ]
!691 = metadata !{i32 786478, i32 0, metadata !421, metadata !"nand_reduce", metadata !"nand_reduce", metadata !"_ZNK11ap_int_baseILi33ELb1ELb1EE11nand_reduceEv", metadata !183, i32 2286, metadata !554, i1 false, i1 false, i32 0, i32 0, null, i32 256, i1 false, null, null, i32 0, metadata !195, i32 2286} ; [ DW_TAG_subprogram ]
!692 = metadata !{i32 786478, i32 0, metadata !421, metadata !"or_reduce", metadata !"or_reduce", metadata !"_ZNK11ap_int_baseILi33ELb1ELb1EE9or_reduceEv", metadata !183, i32 2289, metadata !554, i1 false, i1 false, i32 0, i32 0, null, i32 256, i1 false, null, null, i32 0, metadata !195, i32 2289} ; [ DW_TAG_subprogram ]
!693 = metadata !{i32 786478, i32 0, metadata !421, metadata !"nor_reduce", metadata !"nor_reduce", metadata !"_ZNK11ap_int_baseILi33ELb1ELb1EE10nor_reduceEv", metadata !183, i32 2292, metadata !554, i1 false, i1 false, i32 0, i32 0, null, i32 256, i1 false, null, null, i32 0, metadata !195, i32 2292} ; [ DW_TAG_subprogram ]
!694 = metadata !{i32 786478, i32 0, metadata !421, metadata !"xor_reduce", metadata !"xor_reduce", metadata !"_ZNK11ap_int_baseILi33ELb1ELb1EE10xor_reduceEv", metadata !183, i32 2295, metadata !554, i1 false, i1 false, i32 0, i32 0, null, i32 256, i1 false, null, null, i32 0, metadata !195, i32 2295} ; [ DW_TAG_subprogram ]
!695 = metadata !{i32 786478, i32 0, metadata !421, metadata !"xnor_reduce", metadata !"xnor_reduce", metadata !"_ZNK11ap_int_baseILi33ELb1ELb1EE11xnor_reduceEv", metadata !183, i32 2298, metadata !554, i1 false, i1 false, i32 0, i32 0, null, i32 256, i1 false, null, null, i32 0, metadata !195, i32 2298} ; [ DW_TAG_subprogram ]
!696 = metadata !{i32 786478, i32 0, metadata !421, metadata !"to_string", metadata !"to_string", metadata !"_ZNK11ap_int_baseILi33ELb1ELb1EE9to_stringEPci8BaseModeb", metadata !183, i32 2305, metadata !697, i1 false, i1 false, i32 0, i32 0, null, i32 256, i1 false, null, null, i32 0, metadata !195, i32 2305} ; [ DW_TAG_subprogram ]
!697 = metadata !{i32 786453, i32 0, metadata !"", i32 0, i32 0, i64 0, i64 0, i64 0, i32 0, null, metadata !698, i32 0, i32 0} ; [ DW_TAG_subroutine_type ]
!698 = metadata !{null, metadata !552, metadata !699, metadata !204, metadata !700, metadata !206}
!699 = metadata !{i32 786447, null, metadata !"", null, i32 0, i64 32, i64 32, i64 0, i32 0, metadata !282} ; [ DW_TAG_pointer_type ]
!700 = metadata !{i32 786436, null, metadata !"BaseMode", metadata !183, i32 602, i64 5, i64 8, i32 0, i32 0, null, metadata !701, i32 0, i32 0} ; [ DW_TAG_enumeration_type ]
!701 = metadata !{metadata !702, metadata !703, metadata !704, metadata !705}
!702 = metadata !{i32 786472, metadata !"SC_BIN", i64 2} ; [ DW_TAG_enumerator ]
!703 = metadata !{i32 786472, metadata !"SC_OCT", i64 8} ; [ DW_TAG_enumerator ]
!704 = metadata !{i32 786472, metadata !"SC_DEC", i64 10} ; [ DW_TAG_enumerator ]
!705 = metadata !{i32 786472, metadata !"SC_HEX", i64 16} ; [ DW_TAG_enumerator ]
!706 = metadata !{i32 786478, i32 0, metadata !421, metadata !"to_string", metadata !"to_string", metadata !"_ZNK11ap_int_baseILi33ELb1ELb1EE9to_stringE8BaseModeb", metadata !183, i32 2332, metadata !707, i1 false, i1 false, i32 0, i32 0, null, i32 256, i1 false, null, null, i32 0, metadata !195, i32 2332} ; [ DW_TAG_subprogram ]
!707 = metadata !{i32 786453, i32 0, metadata !"", i32 0, i32 0, i64 0, i64 0, i64 0, i32 0, null, metadata !708, i32 0, i32 0} ; [ DW_TAG_subroutine_type ]
!708 = metadata !{metadata !699, metadata !552, metadata !700, metadata !206}
!709 = metadata !{i32 786478, i32 0, metadata !421, metadata !"to_string", metadata !"to_string", metadata !"_ZNK11ap_int_baseILi33ELb1ELb1EE9to_stringEab", metadata !183, i32 2336, metadata !710, i1 false, i1 false, i32 0, i32 0, null, i32 256, i1 false, null, null, i32 0, metadata !195, i32 2336} ; [ DW_TAG_subprogram ]
!710 = metadata !{i32 786453, i32 0, metadata !"", i32 0, i32 0, i64 0, i64 0, i64 0, i32 0, null, metadata !711, i32 0, i32 0} ; [ DW_TAG_subroutine_type ]
!711 = metadata !{metadata !699, metadata !552, metadata !231, metadata !206}
!712 = metadata !{metadata !678, metadata !205, metadata !713}
!713 = metadata !{i32 786480, null, metadata !"_AP_C", metadata !206, i64 1, null, i32 0, i32 0} ; [ DW_TAG_template_value_parameter ]
!714 = metadata !{i32 786478, i32 0, metadata !182, metadata !"range", metadata !"range", metadata !"_ZN11ap_int_baseILi32ELb1ELb1EE5rangeEii", metadata !183, i32 2005, metadata !715, i1 false, i1 false, i32 0, i32 0, null, i32 256, i1 false, null, null, i32 0, metadata !195, i32 2005} ; [ DW_TAG_subprogram ]
!715 = metadata !{i32 786453, i32 0, metadata !"", i32 0, i32 0, i64 0, i64 0, i64 0, i32 0, null, metadata !716, i32 0, i32 0} ; [ DW_TAG_subroutine_type ]
!716 = metadata !{metadata !717, metadata !210, metadata !204, metadata !204}
!717 = metadata !{i32 786434, null, metadata !"ap_range_ref<32, true>", metadata !183, i32 923, i32 0, i32 0, i32 0, i32 4, null, null, i32 0} ; [ DW_TAG_class_type ]
!718 = metadata !{i32 786478, i32 0, metadata !182, metadata !"operator()", metadata !"operator()", metadata !"_ZN11ap_int_baseILi32ELb1ELb1EEclEii", metadata !183, i32 2011, metadata !715, i1 false, i1 false, i32 0, i32 0, null, i32 256, i1 false, null, null, i32 0, metadata !195, i32 2011} ; [ DW_TAG_subprogram ]
!719 = metadata !{i32 786478, i32 0, metadata !182, metadata !"range", metadata !"range", metadata !"_ZNK11ap_int_baseILi32ELb1ELb1EE5rangeEii", metadata !183, i32 2017, metadata !720, i1 false, i1 false, i32 0, i32 0, null, i32 256, i1 false, null, null, i32 0, metadata !195, i32 2017} ; [ DW_TAG_subprogram ]
!720 = metadata !{i32 786453, i32 0, metadata !"", i32 0, i32 0, i64 0, i64 0, i64 0, i32 0, null, metadata !721, i32 0, i32 0} ; [ DW_TAG_subroutine_type ]
!721 = metadata !{metadata !717, metadata !343, metadata !204, metadata !204}
!722 = metadata !{i32 786478, i32 0, metadata !182, metadata !"operator()", metadata !"operator()", metadata !"_ZNK11ap_int_baseILi32ELb1ELb1EEclEii", metadata !183, i32 2023, metadata !720, i1 false, i1 false, i32 0, i32 0, null, i32 256, i1 false, null, null, i32 0, metadata !195, i32 2023} ; [ DW_TAG_subprogram ]
!723 = metadata !{i32 786478, i32 0, metadata !182, metadata !"operator[]", metadata !"operator[]", metadata !"_ZN11ap_int_baseILi32ELb1ELb1EEixEi", metadata !183, i32 2042, metadata !724, i1 false, i1 false, i32 0, i32 0, null, i32 256, i1 false, null, null, i32 0, metadata !195, i32 2042} ; [ DW_TAG_subprogram ]
!724 = metadata !{i32 786453, i32 0, metadata !"", i32 0, i32 0, i64 0, i64 0, i64 0, i32 0, null, metadata !725, i32 0, i32 0} ; [ DW_TAG_subroutine_type ]
!725 = metadata !{metadata !726, metadata !210, metadata !204}
!726 = metadata !{i32 786434, null, metadata !"ap_bit_ref<32, true>", metadata !183, i32 1193, i32 0, i32 0, i32 0, i32 4, null, null, i32 0} ; [ DW_TAG_class_type ]
!727 = metadata !{i32 786478, i32 0, metadata !182, metadata !"operator[]", metadata !"operator[]", metadata !"_ZNK11ap_int_baseILi32ELb1ELb1EEixEi", metadata !183, i32 2056, metadata !394, i1 false, i1 false, i32 0, i32 0, null, i32 256, i1 false, null, null, i32 0, metadata !195, i32 2056} ; [ DW_TAG_subprogram ]
!728 = metadata !{i32 786478, i32 0, metadata !182, metadata !"bit", metadata !"bit", metadata !"_ZN11ap_int_baseILi32ELb1ELb1EE3bitEi", metadata !183, i32 2070, metadata !724, i1 false, i1 false, i32 0, i32 0, null, i32 256, i1 false, null, null, i32 0, metadata !195, i32 2070} ; [ DW_TAG_subprogram ]
!729 = metadata !{i32 786478, i32 0, metadata !182, metadata !"bit", metadata !"bit", metadata !"_ZNK11ap_int_baseILi32ELb1ELb1EE3bitEi", metadata !183, i32 2084, metadata !394, i1 false, i1 false, i32 0, i32 0, null, i32 256, i1 false, null, null, i32 0, metadata !195, i32 2084} ; [ DW_TAG_subprogram ]
!730 = metadata !{i32 786478, i32 0, metadata !182, metadata !"and_reduce", metadata !"and_reduce", metadata !"_ZN11ap_int_baseILi32ELb1ELb1EE10and_reduceEv", metadata !183, i32 2264, metadata !731, i1 false, i1 false, i32 0, i32 0, null, i32 256, i1 false, null, null, i32 0, metadata !195, i32 2264} ; [ DW_TAG_subprogram ]
!731 = metadata !{i32 786453, i32 0, metadata !"", i32 0, i32 0, i64 0, i64 0, i64 0, i32 0, null, metadata !732, i32 0, i32 0} ; [ DW_TAG_subroutine_type ]
!732 = metadata !{metadata !206, metadata !210}
!733 = metadata !{i32 786478, i32 0, metadata !182, metadata !"nand_reduce", metadata !"nand_reduce", metadata !"_ZN11ap_int_baseILi32ELb1ELb1EE11nand_reduceEv", metadata !183, i32 2267, metadata !731, i1 false, i1 false, i32 0, i32 0, null, i32 256, i1 false, null, null, i32 0, metadata !195, i32 2267} ; [ DW_TAG_subprogram ]
!734 = metadata !{i32 786478, i32 0, metadata !182, metadata !"or_reduce", metadata !"or_reduce", metadata !"_ZN11ap_int_baseILi32ELb1ELb1EE9or_reduceEv", metadata !183, i32 2270, metadata !731, i1 false, i1 false, i32 0, i32 0, null, i32 256, i1 false, null, null, i32 0, metadata !195, i32 2270} ; [ DW_TAG_subprogram ]
!735 = metadata !{i32 786478, i32 0, metadata !182, metadata !"nor_reduce", metadata !"nor_reduce", metadata !"_ZN11ap_int_baseILi32ELb1ELb1EE10nor_reduceEv", metadata !183, i32 2273, metadata !731, i1 false, i1 false, i32 0, i32 0, null, i32 256, i1 false, null, null, i32 0, metadata !195, i32 2273} ; [ DW_TAG_subprogram ]
!736 = metadata !{i32 786478, i32 0, metadata !182, metadata !"xor_reduce", metadata !"xor_reduce", metadata !"_ZN11ap_int_baseILi32ELb1ELb1EE10xor_reduceEv", metadata !183, i32 2276, metadata !731, i1 false, i1 false, i32 0, i32 0, null, i32 256, i1 false, null, null, i32 0, metadata !195, i32 2276} ; [ DW_TAG_subprogram ]
!737 = metadata !{i32 786478, i32 0, metadata !182, metadata !"xnor_reduce", metadata !"xnor_reduce", metadata !"_ZN11ap_int_baseILi32ELb1ELb1EE11xnor_reduceEv", metadata !183, i32 2279, metadata !731, i1 false, i1 false, i32 0, i32 0, null, i32 256, i1 false, null, null, i32 0, metadata !195, i32 2279} ; [ DW_TAG_subprogram ]
!738 = metadata !{i32 786478, i32 0, metadata !182, metadata !"and_reduce", metadata !"and_reduce", metadata !"_ZNK11ap_int_baseILi32ELb1ELb1EE10and_reduceEv", metadata !183, i32 2283, metadata !345, i1 false, i1 false, i32 0, i32 0, null, i32 256, i1 false, null, null, i32 0, metadata !195, i32 2283} ; [ DW_TAG_subprogram ]
!739 = metadata !{i32 786478, i32 0, metadata !182, metadata !"nand_reduce", metadata !"nand_reduce", metadata !"_ZNK11ap_int_baseILi32ELb1ELb1EE11nand_reduceEv", metadata !183, i32 2286, metadata !345, i1 false, i1 false, i32 0, i32 0, null, i32 256, i1 false, null, null, i32 0, metadata !195, i32 2286} ; [ DW_TAG_subprogram ]
!740 = metadata !{i32 786478, i32 0, metadata !182, metadata !"or_reduce", metadata !"or_reduce", metadata !"_ZNK11ap_int_baseILi32ELb1ELb1EE9or_reduceEv", metadata !183, i32 2289, metadata !345, i1 false, i1 false, i32 0, i32 0, null, i32 256, i1 false, null, null, i32 0, metadata !195, i32 2289} ; [ DW_TAG_subprogram ]
!741 = metadata !{i32 786478, i32 0, metadata !182, metadata !"nor_reduce", metadata !"nor_reduce", metadata !"_ZNK11ap_int_baseILi32ELb1ELb1EE10nor_reduceEv", metadata !183, i32 2292, metadata !345, i1 false, i1 false, i32 0, i32 0, null, i32 256, i1 false, null, null, i32 0, metadata !195, i32 2292} ; [ DW_TAG_subprogram ]
!742 = metadata !{i32 786478, i32 0, metadata !182, metadata !"xor_reduce", metadata !"xor_reduce", metadata !"_ZNK11ap_int_baseILi32ELb1ELb1EE10xor_reduceEv", metadata !183, i32 2295, metadata !345, i1 false, i1 false, i32 0, i32 0, null, i32 256, i1 false, null, null, i32 0, metadata !195, i32 2295} ; [ DW_TAG_subprogram ]
!743 = metadata !{i32 786478, i32 0, metadata !182, metadata !"xnor_reduce", metadata !"xnor_reduce", metadata !"_ZNK11ap_int_baseILi32ELb1ELb1EE11xnor_reduceEv", metadata !183, i32 2298, metadata !345, i1 false, i1 false, i32 0, i32 0, null, i32 256, i1 false, null, null, i32 0, metadata !195, i32 2298} ; [ DW_TAG_subprogram ]
!744 = metadata !{i32 786478, i32 0, metadata !182, metadata !"to_string", metadata !"to_string", metadata !"_ZNK11ap_int_baseILi32ELb1ELb1EE9to_stringEPci8BaseModeb", metadata !183, i32 2305, metadata !745, i1 false, i1 false, i32 0, i32 0, null, i32 256, i1 false, null, null, i32 0, metadata !195, i32 2305} ; [ DW_TAG_subprogram ]
!745 = metadata !{i32 786453, i32 0, metadata !"", i32 0, i32 0, i64 0, i64 0, i64 0, i32 0, null, metadata !746, i32 0, i32 0} ; [ DW_TAG_subroutine_type ]
!746 = metadata !{null, metadata !343, metadata !699, metadata !204, metadata !700, metadata !206}
!747 = metadata !{i32 786478, i32 0, metadata !182, metadata !"to_string", metadata !"to_string", metadata !"_ZNK11ap_int_baseILi32ELb1ELb1EE9to_stringE8BaseModeb", metadata !183, i32 2332, metadata !748, i1 false, i1 false, i32 0, i32 0, null, i32 256, i1 false, null, null, i32 0, metadata !195, i32 2332} ; [ DW_TAG_subprogram ]
!748 = metadata !{i32 786453, i32 0, metadata !"", i32 0, i32 0, i64 0, i64 0, i64 0, i32 0, null, metadata !749, i32 0, i32 0} ; [ DW_TAG_subroutine_type ]
!749 = metadata !{metadata !699, metadata !343, metadata !700, metadata !206}
!750 = metadata !{i32 786478, i32 0, metadata !182, metadata !"to_string", metadata !"to_string", metadata !"_ZNK11ap_int_baseILi32ELb1ELb1EE9to_stringEab", metadata !183, i32 2336, metadata !751, i1 false, i1 false, i32 0, i32 0, null, i32 256, i1 false, null, null, i32 0, metadata !195, i32 2336} ; [ DW_TAG_subprogram ]
!751 = metadata !{i32 786453, i32 0, metadata !"", i32 0, i32 0, i64 0, i64 0, i64 0, i32 0, null, metadata !752, i32 0, i32 0} ; [ DW_TAG_subroutine_type ]
!752 = metadata !{metadata !699, metadata !343, metadata !231, metadata !206}
!753 = metadata !{i32 786478, i32 0, metadata !182, metadata !"ap_int_base", metadata !"ap_int_base", metadata !"", metadata !183, i32 1397, metadata !212, i1 false, i1 false, i32 0, i32 0, null, i32 320, i1 false, null, null, i32 0, metadata !195, i32 1397} ; [ DW_TAG_subprogram ]
!754 = metadata !{metadata !755, metadata !205, metadata !713}
!755 = metadata !{i32 786480, null, metadata !"_AP_W", metadata !204, i64 32, null, i32 0, i32 0} ; [ DW_TAG_template_value_parameter ]
!756 = metadata !{i32 786478, i32 0, metadata !178, metadata !"ap_int", metadata !"ap_int", metadata !"", metadata !179, i32 76, metadata !757, i1 false, i1 false, i32 0, i32 0, null, i32 256, i1 false, null, null, i32 0, metadata !195, i32 76} ; [ DW_TAG_subprogram ]
!757 = metadata !{i32 786453, i32 0, metadata !"", i32 0, i32 0, i64 0, i64 0, i64 0, i32 0, null, metadata !758, i32 0, i32 0} ; [ DW_TAG_subroutine_type ]
!758 = metadata !{null, metadata !759}
!759 = metadata !{i32 786447, i32 0, metadata !"", i32 0, i32 0, i64 32, i64 32, i64 0, i32 64, metadata !178} ; [ DW_TAG_pointer_type ]
!760 = metadata !{i32 786478, i32 0, metadata !178, metadata !"ap_int<32>", metadata !"ap_int<32>", metadata !"", metadata !179, i32 78, metadata !761, i1 false, i1 false, i32 0, i32 0, null, i32 256, i1 false, null, metadata !765, i32 0, metadata !195, i32 78} ; [ DW_TAG_subprogram ]
!761 = metadata !{i32 786453, i32 0, metadata !"", i32 0, i32 0, i64 0, i64 0, i64 0, i32 0, null, metadata !762, i32 0, i32 0} ; [ DW_TAG_subroutine_type ]
!762 = metadata !{null, metadata !759, metadata !763}
!763 = metadata !{i32 786448, null, null, null, i32 0, i64 0, i64 0, i64 0, i32 0, metadata !764} ; [ DW_TAG_reference_type ]
!764 = metadata !{i32 786470, null, metadata !"", null, i32 0, i64 0, i64 0, i64 0, i32 0, metadata !178} ; [ DW_TAG_const_type ]
!765 = metadata !{metadata !217}
!766 = metadata !{i32 786478, i32 0, metadata !178, metadata !"ap_int<32>", metadata !"ap_int<32>", metadata !"", metadata !179, i32 81, metadata !767, i1 false, i1 false, i32 0, i32 0, null, i32 256, i1 false, null, metadata !765, i32 0, metadata !195, i32 81} ; [ DW_TAG_subprogram ]
!767 = metadata !{i32 786453, i32 0, metadata !"", i32 0, i32 0, i64 0, i64 0, i64 0, i32 0, null, metadata !768, i32 0, i32 0} ; [ DW_TAG_subroutine_type ]
!768 = metadata !{null, metadata !759, metadata !769}
!769 = metadata !{i32 786448, null, null, null, i32 0, i64 0, i64 0, i64 0, i32 0, metadata !770} ; [ DW_TAG_reference_type ]
!770 = metadata !{i32 786470, null, metadata !"", null, i32 0, i64 0, i64 0, i64 0, i32 0, metadata !771} ; [ DW_TAG_const_type ]
!771 = metadata !{i32 786485, null, metadata !"", null, i32 0, i64 0, i64 0, i64 0, i32 0, metadata !178} ; [ DW_TAG_volatile_type ]
!772 = metadata !{i32 786478, i32 0, metadata !178, metadata !"ap_int<32, true>", metadata !"ap_int<32, true>", metadata !"", metadata !179, i32 120, metadata !773, i1 false, i1 false, i32 0, i32 0, null, i32 256, i1 false, null, metadata !216, i32 0, metadata !195, i32 120} ; [ DW_TAG_subprogram ]
!773 = metadata !{i32 786453, i32 0, metadata !"", i32 0, i32 0, i64 0, i64 0, i64 0, i32 0, null, metadata !774, i32 0, i32 0} ; [ DW_TAG_subroutine_type ]
!774 = metadata !{null, metadata !759, metadata !214}
!775 = metadata !{i32 786478, i32 0, metadata !178, metadata !"ap_int", metadata !"ap_int", metadata !"", metadata !179, i32 139, metadata !776, i1 false, i1 false, i32 0, i32 0, null, i32 256, i1 false, null, null, i32 0, metadata !195, i32 139} ; [ DW_TAG_subprogram ]
!776 = metadata !{i32 786453, i32 0, metadata !"", i32 0, i32 0, i64 0, i64 0, i64 0, i32 0, null, metadata !777, i32 0, i32 0} ; [ DW_TAG_subroutine_type ]
!777 = metadata !{null, metadata !759, metadata !206}
!778 = metadata !{i32 786478, i32 0, metadata !178, metadata !"ap_int", metadata !"ap_int", metadata !"", metadata !179, i32 140, metadata !779, i1 false, i1 false, i32 0, i32 0, null, i32 256, i1 false, null, null, i32 0, metadata !195, i32 140} ; [ DW_TAG_subprogram ]
!779 = metadata !{i32 786453, i32 0, metadata !"", i32 0, i32 0, i64 0, i64 0, i64 0, i32 0, null, metadata !780, i32 0, i32 0} ; [ DW_TAG_subroutine_type ]
!780 = metadata !{null, metadata !759, metadata !231}
!781 = metadata !{i32 786478, i32 0, metadata !178, metadata !"ap_int", metadata !"ap_int", metadata !"", metadata !179, i32 141, metadata !782, i1 false, i1 false, i32 0, i32 0, null, i32 256, i1 false, null, null, i32 0, metadata !195, i32 141} ; [ DW_TAG_subprogram ]
!782 = metadata !{i32 786453, i32 0, metadata !"", i32 0, i32 0, i64 0, i64 0, i64 0, i32 0, null, metadata !783, i32 0, i32 0} ; [ DW_TAG_subroutine_type ]
!783 = metadata !{null, metadata !759, metadata !235}
!784 = metadata !{i32 786478, i32 0, metadata !178, metadata !"ap_int", metadata !"ap_int", metadata !"", metadata !179, i32 142, metadata !785, i1 false, i1 false, i32 0, i32 0, null, i32 256, i1 false, null, null, i32 0, metadata !195, i32 142} ; [ DW_TAG_subprogram ]
!785 = metadata !{i32 786453, i32 0, metadata !"", i32 0, i32 0, i64 0, i64 0, i64 0, i32 0, null, metadata !786, i32 0, i32 0} ; [ DW_TAG_subroutine_type ]
!786 = metadata !{null, metadata !759, metadata !239}
!787 = metadata !{i32 786478, i32 0, metadata !178, metadata !"ap_int", metadata !"ap_int", metadata !"", metadata !179, i32 143, metadata !788, i1 false, i1 false, i32 0, i32 0, null, i32 256, i1 false, null, null, i32 0, metadata !195, i32 143} ; [ DW_TAG_subprogram ]
!788 = metadata !{i32 786453, i32 0, metadata !"", i32 0, i32 0, i64 0, i64 0, i64 0, i32 0, null, metadata !789, i32 0, i32 0} ; [ DW_TAG_subroutine_type ]
!789 = metadata !{null, metadata !759, metadata !243}
!790 = metadata !{i32 786478, i32 0, metadata !178, metadata !"ap_int", metadata !"ap_int", metadata !"", metadata !179, i32 144, metadata !791, i1 false, i1 false, i32 0, i32 0, null, i32 256, i1 false, null, null, i32 0, metadata !195, i32 144} ; [ DW_TAG_subprogram ]
!791 = metadata !{i32 786453, i32 0, metadata !"", i32 0, i32 0, i64 0, i64 0, i64 0, i32 0, null, metadata !792, i32 0, i32 0} ; [ DW_TAG_subroutine_type ]
!792 = metadata !{null, metadata !759, metadata !204}
!793 = metadata !{i32 786478, i32 0, metadata !178, metadata !"ap_int", metadata !"ap_int", metadata !"", metadata !179, i32 145, metadata !794, i1 false, i1 false, i32 0, i32 0, null, i32 256, i1 false, null, null, i32 0, metadata !195, i32 145} ; [ DW_TAG_subprogram ]
!794 = metadata !{i32 786453, i32 0, metadata !"", i32 0, i32 0, i64 0, i64 0, i64 0, i32 0, null, metadata !795, i32 0, i32 0} ; [ DW_TAG_subroutine_type ]
!795 = metadata !{null, metadata !759, metadata !250}
!796 = metadata !{i32 786478, i32 0, metadata !178, metadata !"ap_int", metadata !"ap_int", metadata !"", metadata !179, i32 146, metadata !797, i1 false, i1 false, i32 0, i32 0, null, i32 256, i1 false, null, null, i32 0, metadata !195, i32 146} ; [ DW_TAG_subprogram ]
!797 = metadata !{i32 786453, i32 0, metadata !"", i32 0, i32 0, i64 0, i64 0, i64 0, i32 0, null, metadata !798, i32 0, i32 0} ; [ DW_TAG_subroutine_type ]
!798 = metadata !{null, metadata !759, metadata !254}
!799 = metadata !{i32 786478, i32 0, metadata !178, metadata !"ap_int", metadata !"ap_int", metadata !"", metadata !179, i32 147, metadata !800, i1 false, i1 false, i32 0, i32 0, null, i32 256, i1 false, null, null, i32 0, metadata !195, i32 147} ; [ DW_TAG_subprogram ]
!800 = metadata !{i32 786453, i32 0, metadata !"", i32 0, i32 0, i64 0, i64 0, i64 0, i32 0, null, metadata !801, i32 0, i32 0} ; [ DW_TAG_subroutine_type ]
!801 = metadata !{null, metadata !759, metadata !258}
!802 = metadata !{i32 786478, i32 0, metadata !178, metadata !"ap_int", metadata !"ap_int", metadata !"", metadata !179, i32 148, metadata !803, i1 false, i1 false, i32 0, i32 0, null, i32 256, i1 false, null, null, i32 0, metadata !195, i32 148} ; [ DW_TAG_subprogram ]
!803 = metadata !{i32 786453, i32 0, metadata !"", i32 0, i32 0, i64 0, i64 0, i64 0, i32 0, null, metadata !804, i32 0, i32 0} ; [ DW_TAG_subroutine_type ]
!804 = metadata !{null, metadata !759, metadata !268}
!805 = metadata !{i32 786478, i32 0, metadata !178, metadata !"ap_int", metadata !"ap_int", metadata !"", metadata !179, i32 149, metadata !806, i1 false, i1 false, i32 0, i32 0, null, i32 256, i1 false, null, null, i32 0, metadata !195, i32 149} ; [ DW_TAG_subprogram ]
!806 = metadata !{i32 786453, i32 0, metadata !"", i32 0, i32 0, i64 0, i64 0, i64 0, i32 0, null, metadata !807, i32 0, i32 0} ; [ DW_TAG_subroutine_type ]
!807 = metadata !{null, metadata !759, metadata !263}
!808 = metadata !{i32 786478, i32 0, metadata !178, metadata !"ap_int", metadata !"ap_int", metadata !"", metadata !179, i32 150, metadata !809, i1 false, i1 false, i32 0, i32 0, null, i32 256, i1 false, null, null, i32 0, metadata !195, i32 150} ; [ DW_TAG_subprogram ]
!809 = metadata !{i32 786453, i32 0, metadata !"", i32 0, i32 0, i64 0, i64 0, i64 0, i32 0, null, metadata !810, i32 0, i32 0} ; [ DW_TAG_subroutine_type ]
!810 = metadata !{null, metadata !759, metadata !272}
!811 = metadata !{i32 786478, i32 0, metadata !178, metadata !"ap_int", metadata !"ap_int", metadata !"", metadata !179, i32 151, metadata !812, i1 false, i1 false, i32 0, i32 0, null, i32 256, i1 false, null, null, i32 0, metadata !195, i32 151} ; [ DW_TAG_subprogram ]
!812 = metadata !{i32 786453, i32 0, metadata !"", i32 0, i32 0, i64 0, i64 0, i64 0, i32 0, null, metadata !813, i32 0, i32 0} ; [ DW_TAG_subroutine_type ]
!813 = metadata !{null, metadata !759, metadata !276}
!814 = metadata !{i32 786478, i32 0, metadata !178, metadata !"ap_int", metadata !"ap_int", metadata !"", metadata !179, i32 153, metadata !815, i1 false, i1 false, i32 0, i32 0, null, i32 256, i1 false, null, null, i32 0, metadata !195, i32 153} ; [ DW_TAG_subprogram ]
!815 = metadata !{i32 786453, i32 0, metadata !"", i32 0, i32 0, i64 0, i64 0, i64 0, i32 0, null, metadata !816, i32 0, i32 0} ; [ DW_TAG_subroutine_type ]
!816 = metadata !{null, metadata !759, metadata !280}
!817 = metadata !{i32 786478, i32 0, metadata !178, metadata !"ap_int", metadata !"ap_int", metadata !"", metadata !179, i32 154, metadata !818, i1 false, i1 false, i32 0, i32 0, null, i32 256, i1 false, null, null, i32 0, metadata !195, i32 154} ; [ DW_TAG_subprogram ]
!818 = metadata !{i32 786453, i32 0, metadata !"", i32 0, i32 0, i64 0, i64 0, i64 0, i32 0, null, metadata !819, i32 0, i32 0} ; [ DW_TAG_subroutine_type ]
!819 = metadata !{null, metadata !759, metadata !280, metadata !231}
!820 = metadata !{i32 786478, i32 0, metadata !178, metadata !"operator=", metadata !"operator=", metadata !"_ZNV6ap_intILi32EEaSERKS0_", metadata !179, i32 158, metadata !821, i1 false, i1 false, i32 0, i32 0, null, i32 256, i1 false, null, null, i32 0, metadata !195, i32 158} ; [ DW_TAG_subprogram ]
!821 = metadata !{i32 786453, i32 0, metadata !"", i32 0, i32 0, i64 0, i64 0, i64 0, i32 0, null, metadata !822, i32 0, i32 0} ; [ DW_TAG_subroutine_type ]
!822 = metadata !{null, metadata !823, metadata !763}
!823 = metadata !{i32 786447, i32 0, metadata !"", i32 0, i32 0, i64 32, i64 32, i64 0, i32 64, metadata !771} ; [ DW_TAG_pointer_type ]
!824 = metadata !{i32 786478, i32 0, metadata !178, metadata !"operator=", metadata !"operator=", metadata !"_ZNV6ap_intILi32EEaSERVKS0_", metadata !179, i32 162, metadata !825, i1 false, i1 false, i32 0, i32 0, null, i32 256, i1 false, null, null, i32 0, metadata !195, i32 162} ; [ DW_TAG_subprogram ]
!825 = metadata !{i32 786453, i32 0, metadata !"", i32 0, i32 0, i64 0, i64 0, i64 0, i32 0, null, metadata !826, i32 0, i32 0} ; [ DW_TAG_subroutine_type ]
!826 = metadata !{null, metadata !823, metadata !769}
!827 = metadata !{i32 786478, i32 0, metadata !178, metadata !"operator=", metadata !"operator=", metadata !"_ZN6ap_intILi32EEaSERVKS0_", metadata !179, i32 166, metadata !828, i1 false, i1 false, i32 0, i32 0, null, i32 256, i1 false, null, null, i32 0, metadata !195, i32 166} ; [ DW_TAG_subprogram ]
!828 = metadata !{i32 786453, i32 0, metadata !"", i32 0, i32 0, i64 0, i64 0, i64 0, i32 0, null, metadata !829, i32 0, i32 0} ; [ DW_TAG_subroutine_type ]
!829 = metadata !{metadata !830, metadata !759, metadata !769}
!830 = metadata !{i32 786448, null, null, null, i32 0, i64 0, i64 0, i64 0, i32 0, metadata !178} ; [ DW_TAG_reference_type ]
!831 = metadata !{i32 786478, i32 0, metadata !178, metadata !"operator=", metadata !"operator=", metadata !"_ZN6ap_intILi32EEaSERKS0_", metadata !179, i32 171, metadata !832, i1 false, i1 false, i32 0, i32 0, null, i32 256, i1 false, null, null, i32 0, metadata !195, i32 171} ; [ DW_TAG_subprogram ]
!832 = metadata !{i32 786453, i32 0, metadata !"", i32 0, i32 0, i64 0, i64 0, i64 0, i32 0, null, metadata !833, i32 0, i32 0} ; [ DW_TAG_subroutine_type ]
!833 = metadata !{metadata !830, metadata !759, metadata !763}
!834 = metadata !{i32 786478, i32 0, metadata !178, metadata !"ap_int", metadata !"ap_int", metadata !"", metadata !179, i32 73, metadata !761, i1 false, i1 false, i32 0, i32 0, null, i32 320, i1 false, null, null, i32 0, metadata !195, i32 73} ; [ DW_TAG_subprogram ]
!835 = metadata !{i32 786478, i32 0, metadata !178, metadata !"~ap_int", metadata !"~ap_int", metadata !"", metadata !179, i32 73, metadata !757, i1 false, i1 false, i32 0, i32 0, null, i32 320, i1 false, null, null, i32 0, metadata !195, i32 73} ; [ DW_TAG_subprogram ]
!836 = metadata !{metadata !755}
!837 = metadata !{i32 786445, metadata !174, metadata !"keep", metadata !175, i32 91, i64 8, i64 8, i64 32, i32 0, metadata !838} ; [ DW_TAG_member ]
!838 = metadata !{i32 786434, null, metadata !"ap_uint<4>", metadata !179, i32 180, i64 8, i64 8, i32 0, i32 0, null, metadata !839, i32 0, null, metadata !1179} ; [ DW_TAG_class_type ]
!839 = metadata !{metadata !840, metadata !1099, metadata !1103, metadata !1109, metadata !1115, metadata !1118, metadata !1121, metadata !1124, metadata !1127, metadata !1130, metadata !1133, metadata !1136, metadata !1139, metadata !1142, metadata !1145, metadata !1148, metadata !1151, metadata !1154, metadata !1157, metadata !1160, metadata !1163, metadata !1167, metadata !1170, metadata !1174, metadata !1177, metadata !1178}
!840 = metadata !{i32 786460, metadata !838, null, metadata !179, i32 0, i64 0, i64 0, i64 0, i32 0, metadata !841} ; [ DW_TAG_inheritance ]
!841 = metadata !{i32 786434, null, metadata !"ap_int_base<4, false, true>", metadata !183, i32 1397, i64 8, i64 8, i32 0, i32 0, null, metadata !842, i32 0, null, metadata !1097} ; [ DW_TAG_class_type ]
!842 = metadata !{metadata !843, metadata !859, metadata !863, metadata !871, metadata !877, metadata !880, metadata !883, metadata !886, metadata !889, metadata !892, metadata !895, metadata !898, metadata !901, metadata !904, metadata !907, metadata !910, metadata !913, metadata !916, metadata !919, metadata !922, metadata !926, metadata !929, metadata !932, metadata !933, metadata !937, metadata !940, metadata !943, metadata !946, metadata !949, metadata !952, metadata !955, metadata !958, metadata !961, metadata !964, metadata !967, metadata !970, metadata !979, metadata !982, metadata !985, metadata !988, metadata !991, metadata !994, metadata !997, metadata !1000, metadata !1003, metadata !1006, metadata !1009, metadata !1012, metadata !1015, metadata !1016, metadata !1020, metadata !1023, metadata !1024, metadata !1025, metadata !1026, metadata !1027, metadata !1028, metadata !1031, metadata !1032, metadata !1035, metadata !1036, metadata !1037, metadata !1038, metadata !1039, metadata !1040, metadata !1043, metadata !1044, metadata !1045, metadata !1048, metadata !1049, metadata !1052, metadata !1053, metadata !1057, metadata !1061, metadata !1062, metadata !1065, metadata !1066, metadata !1070, metadata !1071, metadata !1072, metadata !1073, metadata !1076, metadata !1077, metadata !1078, metadata !1079, metadata !1080, metadata !1081, metadata !1082, metadata !1083, metadata !1084, metadata !1085, metadata !1086, metadata !1087, metadata !1090, metadata !1093, metadata !1096}
!843 = metadata !{i32 786460, metadata !841, null, metadata !183, i32 0, i64 0, i64 0, i64 0, i32 0, metadata !844} ; [ DW_TAG_inheritance ]
!844 = metadata !{i32 786434, null, metadata !"ssdm_int<4 + 1024 * 0, false>", metadata !187, i32 6, i64 8, i64 8, i32 0, i32 0, null, metadata !845, i32 0, null, metadata !857} ; [ DW_TAG_class_type ]
!845 = metadata !{metadata !846, metadata !848, metadata !852}
!846 = metadata !{i32 786445, metadata !844, metadata !"V", metadata !187, i32 6, i64 4, i64 4, i64 0, i32 0, metadata !847} ; [ DW_TAG_member ]
!847 = metadata !{i32 786468, null, metadata !"uint4", null, i32 0, i64 4, i64 4, i64 0, i32 0, i32 7} ; [ DW_TAG_base_type ]
!848 = metadata !{i32 786478, i32 0, metadata !844, metadata !"ssdm_int", metadata !"ssdm_int", metadata !"", metadata !187, i32 6, metadata !849, i1 false, i1 false, i32 0, i32 0, null, i32 256, i1 false, null, null, i32 0, metadata !195, i32 6} ; [ DW_TAG_subprogram ]
!849 = metadata !{i32 786453, i32 0, metadata !"", i32 0, i32 0, i64 0, i64 0, i64 0, i32 0, null, metadata !850, i32 0, i32 0} ; [ DW_TAG_subroutine_type ]
!850 = metadata !{null, metadata !851}
!851 = metadata !{i32 786447, i32 0, metadata !"", i32 0, i32 0, i64 32, i64 32, i64 0, i32 64, metadata !844} ; [ DW_TAG_pointer_type ]
!852 = metadata !{i32 786478, i32 0, metadata !844, metadata !"ssdm_int", metadata !"ssdm_int", metadata !"", metadata !187, i32 6, metadata !853, i1 false, i1 false, i32 0, i32 0, null, i32 320, i1 false, null, null, i32 0, metadata !195, i32 6} ; [ DW_TAG_subprogram ]
!853 = metadata !{i32 786453, i32 0, metadata !"", i32 0, i32 0, i64 0, i64 0, i64 0, i32 0, null, metadata !854, i32 0, i32 0} ; [ DW_TAG_subroutine_type ]
!854 = metadata !{null, metadata !851, metadata !855}
!855 = metadata !{i32 786448, null, null, null, i32 0, i64 0, i64 0, i64 0, i32 0, metadata !856} ; [ DW_TAG_reference_type ]
!856 = metadata !{i32 786470, null, metadata !"", null, i32 0, i64 0, i64 0, i64 0, i32 0, metadata !844} ; [ DW_TAG_const_type ]
!857 = metadata !{metadata !342, metadata !858}
!858 = metadata !{i32 786480, null, metadata !"_AP_S", metadata !206, i64 0, null, i32 0, i32 0} ; [ DW_TAG_template_value_parameter ]
!859 = metadata !{i32 786478, i32 0, metadata !841, metadata !"ap_int_base", metadata !"ap_int_base", metadata !"", metadata !183, i32 1438, metadata !860, i1 false, i1 false, i32 0, i32 0, null, i32 256, i1 false, null, null, i32 0, metadata !195, i32 1438} ; [ DW_TAG_subprogram ]
!860 = metadata !{i32 786453, i32 0, metadata !"", i32 0, i32 0, i64 0, i64 0, i64 0, i32 0, null, metadata !861, i32 0, i32 0} ; [ DW_TAG_subroutine_type ]
!861 = metadata !{null, metadata !862}
!862 = metadata !{i32 786447, i32 0, metadata !"", i32 0, i32 0, i64 32, i64 32, i64 0, i32 64, metadata !841} ; [ DW_TAG_pointer_type ]
!863 = metadata !{i32 786478, i32 0, metadata !841, metadata !"ap_int_base<4, false>", metadata !"ap_int_base<4, false>", metadata !"", metadata !183, i32 1450, metadata !864, i1 false, i1 false, i32 0, i32 0, null, i32 256, i1 false, null, metadata !868, i32 0, metadata !195, i32 1450} ; [ DW_TAG_subprogram ]
!864 = metadata !{i32 786453, i32 0, metadata !"", i32 0, i32 0, i64 0, i64 0, i64 0, i32 0, null, metadata !865, i32 0, i32 0} ; [ DW_TAG_subroutine_type ]
!865 = metadata !{null, metadata !862, metadata !866}
!866 = metadata !{i32 786448, null, null, null, i32 0, i64 0, i64 0, i64 0, i32 0, metadata !867} ; [ DW_TAG_reference_type ]
!867 = metadata !{i32 786470, null, metadata !"", null, i32 0, i64 0, i64 0, i64 0, i32 0, metadata !841} ; [ DW_TAG_const_type ]
!868 = metadata !{metadata !869, metadata !870}
!869 = metadata !{i32 786480, null, metadata !"_AP_W2", metadata !204, i64 4, null, i32 0, i32 0} ; [ DW_TAG_template_value_parameter ]
!870 = metadata !{i32 786480, null, metadata !"_AP_S2", metadata !206, i64 0, null, i32 0, i32 0} ; [ DW_TAG_template_value_parameter ]
!871 = metadata !{i32 786478, i32 0, metadata !841, metadata !"ap_int_base<4, false>", metadata !"ap_int_base<4, false>", metadata !"", metadata !183, i32 1453, metadata !872, i1 false, i1 false, i32 0, i32 0, null, i32 256, i1 false, null, metadata !868, i32 0, metadata !195, i32 1453} ; [ DW_TAG_subprogram ]
!872 = metadata !{i32 786453, i32 0, metadata !"", i32 0, i32 0, i64 0, i64 0, i64 0, i32 0, null, metadata !873, i32 0, i32 0} ; [ DW_TAG_subroutine_type ]
!873 = metadata !{null, metadata !862, metadata !874}
!874 = metadata !{i32 786448, null, null, null, i32 0, i64 0, i64 0, i64 0, i32 0, metadata !875} ; [ DW_TAG_reference_type ]
!875 = metadata !{i32 786470, null, metadata !"", null, i32 0, i64 0, i64 0, i64 0, i32 0, metadata !876} ; [ DW_TAG_const_type ]
!876 = metadata !{i32 786485, null, metadata !"", null, i32 0, i64 0, i64 0, i64 0, i32 0, metadata !841} ; [ DW_TAG_volatile_type ]
!877 = metadata !{i32 786478, i32 0, metadata !841, metadata !"ap_int_base", metadata !"ap_int_base", metadata !"", metadata !183, i32 1460, metadata !878, i1 false, i1 false, i32 0, i32 0, null, i32 384, i1 false, null, null, i32 0, metadata !195, i32 1460} ; [ DW_TAG_subprogram ]
!878 = metadata !{i32 786453, i32 0, metadata !"", i32 0, i32 0, i64 0, i64 0, i64 0, i32 0, null, metadata !879, i32 0, i32 0} ; [ DW_TAG_subroutine_type ]
!879 = metadata !{null, metadata !862, metadata !206}
!880 = metadata !{i32 786478, i32 0, metadata !841, metadata !"ap_int_base", metadata !"ap_int_base", metadata !"", metadata !183, i32 1461, metadata !881, i1 false, i1 false, i32 0, i32 0, null, i32 384, i1 false, null, null, i32 0, metadata !195, i32 1461} ; [ DW_TAG_subprogram ]
!881 = metadata !{i32 786453, i32 0, metadata !"", i32 0, i32 0, i64 0, i64 0, i64 0, i32 0, null, metadata !882, i32 0, i32 0} ; [ DW_TAG_subroutine_type ]
!882 = metadata !{null, metadata !862, metadata !231}
!883 = metadata !{i32 786478, i32 0, metadata !841, metadata !"ap_int_base", metadata !"ap_int_base", metadata !"", metadata !183, i32 1462, metadata !884, i1 false, i1 false, i32 0, i32 0, null, i32 384, i1 false, null, null, i32 0, metadata !195, i32 1462} ; [ DW_TAG_subprogram ]
!884 = metadata !{i32 786453, i32 0, metadata !"", i32 0, i32 0, i64 0, i64 0, i64 0, i32 0, null, metadata !885, i32 0, i32 0} ; [ DW_TAG_subroutine_type ]
!885 = metadata !{null, metadata !862, metadata !235}
!886 = metadata !{i32 786478, i32 0, metadata !841, metadata !"ap_int_base", metadata !"ap_int_base", metadata !"", metadata !183, i32 1463, metadata !887, i1 false, i1 false, i32 0, i32 0, null, i32 384, i1 false, null, null, i32 0, metadata !195, i32 1463} ; [ DW_TAG_subprogram ]
!887 = metadata !{i32 786453, i32 0, metadata !"", i32 0, i32 0, i64 0, i64 0, i64 0, i32 0, null, metadata !888, i32 0, i32 0} ; [ DW_TAG_subroutine_type ]
!888 = metadata !{null, metadata !862, metadata !239}
!889 = metadata !{i32 786478, i32 0, metadata !841, metadata !"ap_int_base", metadata !"ap_int_base", metadata !"", metadata !183, i32 1464, metadata !890, i1 false, i1 false, i32 0, i32 0, null, i32 384, i1 false, null, null, i32 0, metadata !195, i32 1464} ; [ DW_TAG_subprogram ]
!890 = metadata !{i32 786453, i32 0, metadata !"", i32 0, i32 0, i64 0, i64 0, i64 0, i32 0, null, metadata !891, i32 0, i32 0} ; [ DW_TAG_subroutine_type ]
!891 = metadata !{null, metadata !862, metadata !243}
!892 = metadata !{i32 786478, i32 0, metadata !841, metadata !"ap_int_base", metadata !"ap_int_base", metadata !"", metadata !183, i32 1465, metadata !893, i1 false, i1 false, i32 0, i32 0, null, i32 384, i1 false, null, null, i32 0, metadata !195, i32 1465} ; [ DW_TAG_subprogram ]
!893 = metadata !{i32 786453, i32 0, metadata !"", i32 0, i32 0, i64 0, i64 0, i64 0, i32 0, null, metadata !894, i32 0, i32 0} ; [ DW_TAG_subroutine_type ]
!894 = metadata !{null, metadata !862, metadata !204}
!895 = metadata !{i32 786478, i32 0, metadata !841, metadata !"ap_int_base", metadata !"ap_int_base", metadata !"", metadata !183, i32 1466, metadata !896, i1 false, i1 false, i32 0, i32 0, null, i32 384, i1 false, null, null, i32 0, metadata !195, i32 1466} ; [ DW_TAG_subprogram ]
!896 = metadata !{i32 786453, i32 0, metadata !"", i32 0, i32 0, i64 0, i64 0, i64 0, i32 0, null, metadata !897, i32 0, i32 0} ; [ DW_TAG_subroutine_type ]
!897 = metadata !{null, metadata !862, metadata !250}
!898 = metadata !{i32 786478, i32 0, metadata !841, metadata !"ap_int_base", metadata !"ap_int_base", metadata !"", metadata !183, i32 1467, metadata !899, i1 false, i1 false, i32 0, i32 0, null, i32 384, i1 false, null, null, i32 0, metadata !195, i32 1467} ; [ DW_TAG_subprogram ]
!899 = metadata !{i32 786453, i32 0, metadata !"", i32 0, i32 0, i64 0, i64 0, i64 0, i32 0, null, metadata !900, i32 0, i32 0} ; [ DW_TAG_subroutine_type ]
!900 = metadata !{null, metadata !862, metadata !254}
!901 = metadata !{i32 786478, i32 0, metadata !841, metadata !"ap_int_base", metadata !"ap_int_base", metadata !"", metadata !183, i32 1468, metadata !902, i1 false, i1 false, i32 0, i32 0, null, i32 384, i1 false, null, null, i32 0, metadata !195, i32 1468} ; [ DW_TAG_subprogram ]
!902 = metadata !{i32 786453, i32 0, metadata !"", i32 0, i32 0, i64 0, i64 0, i64 0, i32 0, null, metadata !903, i32 0, i32 0} ; [ DW_TAG_subroutine_type ]
!903 = metadata !{null, metadata !862, metadata !258}
!904 = metadata !{i32 786478, i32 0, metadata !841, metadata !"ap_int_base", metadata !"ap_int_base", metadata !"", metadata !183, i32 1469, metadata !905, i1 false, i1 false, i32 0, i32 0, null, i32 384, i1 false, null, null, i32 0, metadata !195, i32 1469} ; [ DW_TAG_subprogram ]
!905 = metadata !{i32 786453, i32 0, metadata !"", i32 0, i32 0, i64 0, i64 0, i64 0, i32 0, null, metadata !906, i32 0, i32 0} ; [ DW_TAG_subroutine_type ]
!906 = metadata !{null, metadata !862, metadata !262}
!907 = metadata !{i32 786478, i32 0, metadata !841, metadata !"ap_int_base", metadata !"ap_int_base", metadata !"", metadata !183, i32 1470, metadata !908, i1 false, i1 false, i32 0, i32 0, null, i32 384, i1 false, null, null, i32 0, metadata !195, i32 1470} ; [ DW_TAG_subprogram ]
!908 = metadata !{i32 786453, i32 0, metadata !"", i32 0, i32 0, i64 0, i64 0, i64 0, i32 0, null, metadata !909, i32 0, i32 0} ; [ DW_TAG_subroutine_type ]
!909 = metadata !{null, metadata !862, metadata !267}
!910 = metadata !{i32 786478, i32 0, metadata !841, metadata !"ap_int_base", metadata !"ap_int_base", metadata !"", metadata !183, i32 1471, metadata !911, i1 false, i1 false, i32 0, i32 0, null, i32 384, i1 false, null, null, i32 0, metadata !195, i32 1471} ; [ DW_TAG_subprogram ]
!911 = metadata !{i32 786453, i32 0, metadata !"", i32 0, i32 0, i64 0, i64 0, i64 0, i32 0, null, metadata !912, i32 0, i32 0} ; [ DW_TAG_subroutine_type ]
!912 = metadata !{null, metadata !862, metadata !272}
!913 = metadata !{i32 786478, i32 0, metadata !841, metadata !"ap_int_base", metadata !"ap_int_base", metadata !"", metadata !183, i32 1472, metadata !914, i1 false, i1 false, i32 0, i32 0, null, i32 384, i1 false, null, null, i32 0, metadata !195, i32 1472} ; [ DW_TAG_subprogram ]
!914 = metadata !{i32 786453, i32 0, metadata !"", i32 0, i32 0, i64 0, i64 0, i64 0, i32 0, null, metadata !915, i32 0, i32 0} ; [ DW_TAG_subroutine_type ]
!915 = metadata !{null, metadata !862, metadata !276}
!916 = metadata !{i32 786478, i32 0, metadata !841, metadata !"ap_int_base", metadata !"ap_int_base", metadata !"", metadata !183, i32 1499, metadata !917, i1 false, i1 false, i32 0, i32 0, null, i32 256, i1 false, null, null, i32 0, metadata !195, i32 1499} ; [ DW_TAG_subprogram ]
!917 = metadata !{i32 786453, i32 0, metadata !"", i32 0, i32 0, i64 0, i64 0, i64 0, i32 0, null, metadata !918, i32 0, i32 0} ; [ DW_TAG_subroutine_type ]
!918 = metadata !{null, metadata !862, metadata !280}
!919 = metadata !{i32 786478, i32 0, metadata !841, metadata !"ap_int_base", metadata !"ap_int_base", metadata !"", metadata !183, i32 1506, metadata !920, i1 false, i1 false, i32 0, i32 0, null, i32 256, i1 false, null, null, i32 0, metadata !195, i32 1506} ; [ DW_TAG_subprogram ]
!920 = metadata !{i32 786453, i32 0, metadata !"", i32 0, i32 0, i64 0, i64 0, i64 0, i32 0, null, metadata !921, i32 0, i32 0} ; [ DW_TAG_subroutine_type ]
!921 = metadata !{null, metadata !862, metadata !280, metadata !231}
!922 = metadata !{i32 786478, i32 0, metadata !841, metadata !"read", metadata !"read", metadata !"_ZNV11ap_int_baseILi4ELb0ELb1EE4readEv", metadata !183, i32 1527, metadata !923, i1 false, i1 false, i32 0, i32 0, null, i32 256, i1 false, null, null, i32 0, metadata !195, i32 1527} ; [ DW_TAG_subprogram ]
!923 = metadata !{i32 786453, i32 0, metadata !"", i32 0, i32 0, i64 0, i64 0, i64 0, i32 0, null, metadata !924, i32 0, i32 0} ; [ DW_TAG_subroutine_type ]
!924 = metadata !{metadata !841, metadata !925}
!925 = metadata !{i32 786447, i32 0, metadata !"", i32 0, i32 0, i64 32, i64 32, i64 0, i32 64, metadata !876} ; [ DW_TAG_pointer_type ]
!926 = metadata !{i32 786478, i32 0, metadata !841, metadata !"write", metadata !"write", metadata !"_ZNV11ap_int_baseILi4ELb0ELb1EE5writeERKS0_", metadata !183, i32 1533, metadata !927, i1 false, i1 false, i32 0, i32 0, null, i32 256, i1 false, null, null, i32 0, metadata !195, i32 1533} ; [ DW_TAG_subprogram ]
!927 = metadata !{i32 786453, i32 0, metadata !"", i32 0, i32 0, i64 0, i64 0, i64 0, i32 0, null, metadata !928, i32 0, i32 0} ; [ DW_TAG_subroutine_type ]
!928 = metadata !{null, metadata !925, metadata !866}
!929 = metadata !{i32 786478, i32 0, metadata !841, metadata !"operator=", metadata !"operator=", metadata !"_ZNV11ap_int_baseILi4ELb0ELb1EEaSERVKS0_", metadata !183, i32 1545, metadata !930, i1 false, i1 false, i32 0, i32 0, null, i32 256, i1 false, null, null, i32 0, metadata !195, i32 1545} ; [ DW_TAG_subprogram ]
!930 = metadata !{i32 786453, i32 0, metadata !"", i32 0, i32 0, i64 0, i64 0, i64 0, i32 0, null, metadata !931, i32 0, i32 0} ; [ DW_TAG_subroutine_type ]
!931 = metadata !{null, metadata !925, metadata !874}
!932 = metadata !{i32 786478, i32 0, metadata !841, metadata !"operator=", metadata !"operator=", metadata !"_ZNV11ap_int_baseILi4ELb0ELb1EEaSERKS0_", metadata !183, i32 1554, metadata !927, i1 false, i1 false, i32 0, i32 0, null, i32 256, i1 false, null, null, i32 0, metadata !195, i32 1554} ; [ DW_TAG_subprogram ]
!933 = metadata !{i32 786478, i32 0, metadata !841, metadata !"operator=", metadata !"operator=", metadata !"_ZN11ap_int_baseILi4ELb0ELb1EEaSERVKS0_", metadata !183, i32 1577, metadata !934, i1 false, i1 false, i32 0, i32 0, null, i32 256, i1 false, null, null, i32 0, metadata !195, i32 1577} ; [ DW_TAG_subprogram ]
!934 = metadata !{i32 786453, i32 0, metadata !"", i32 0, i32 0, i64 0, i64 0, i64 0, i32 0, null, metadata !935, i32 0, i32 0} ; [ DW_TAG_subroutine_type ]
!935 = metadata !{metadata !936, metadata !862, metadata !874}
!936 = metadata !{i32 786448, null, null, null, i32 0, i64 0, i64 0, i64 0, i32 0, metadata !841} ; [ DW_TAG_reference_type ]
!937 = metadata !{i32 786478, i32 0, metadata !841, metadata !"operator=", metadata !"operator=", metadata !"_ZN11ap_int_baseILi4ELb0ELb1EEaSERKS0_", metadata !183, i32 1582, metadata !938, i1 false, i1 false, i32 0, i32 0, null, i32 256, i1 false, null, null, i32 0, metadata !195, i32 1582} ; [ DW_TAG_subprogram ]
!938 = metadata !{i32 786453, i32 0, metadata !"", i32 0, i32 0, i64 0, i64 0, i64 0, i32 0, null, metadata !939, i32 0, i32 0} ; [ DW_TAG_subroutine_type ]
!939 = metadata !{metadata !936, metadata !862, metadata !866}
!940 = metadata !{i32 786478, i32 0, metadata !841, metadata !"operator=", metadata !"operator=", metadata !"_ZN11ap_int_baseILi4ELb0ELb1EEaSEPKc", metadata !183, i32 1586, metadata !941, i1 false, i1 false, i32 0, i32 0, null, i32 256, i1 false, null, null, i32 0, metadata !195, i32 1586} ; [ DW_TAG_subprogram ]
!941 = metadata !{i32 786453, i32 0, metadata !"", i32 0, i32 0, i64 0, i64 0, i64 0, i32 0, null, metadata !942, i32 0, i32 0} ; [ DW_TAG_subroutine_type ]
!942 = metadata !{metadata !936, metadata !862, metadata !280}
!943 = metadata !{i32 786478, i32 0, metadata !841, metadata !"set", metadata !"set", metadata !"_ZN11ap_int_baseILi4ELb0ELb1EE3setEPKca", metadata !183, i32 1594, metadata !944, i1 false, i1 false, i32 0, i32 0, null, i32 256, i1 false, null, null, i32 0, metadata !195, i32 1594} ; [ DW_TAG_subprogram ]
!944 = metadata !{i32 786453, i32 0, metadata !"", i32 0, i32 0, i64 0, i64 0, i64 0, i32 0, null, metadata !945, i32 0, i32 0} ; [ DW_TAG_subroutine_type ]
!945 = metadata !{metadata !936, metadata !862, metadata !280, metadata !231}
!946 = metadata !{i32 786478, i32 0, metadata !841, metadata !"operator=", metadata !"operator=", metadata !"_ZN11ap_int_baseILi4ELb0ELb1EEaSEa", metadata !183, i32 1608, metadata !947, i1 false, i1 false, i32 0, i32 0, null, i32 256, i1 false, null, null, i32 0, metadata !195, i32 1608} ; [ DW_TAG_subprogram ]
!947 = metadata !{i32 786453, i32 0, metadata !"", i32 0, i32 0, i64 0, i64 0, i64 0, i32 0, null, metadata !948, i32 0, i32 0} ; [ DW_TAG_subroutine_type ]
!948 = metadata !{metadata !936, metadata !862, metadata !231}
!949 = metadata !{i32 786478, i32 0, metadata !841, metadata !"operator=", metadata !"operator=", metadata !"_ZN11ap_int_baseILi4ELb0ELb1EEaSEh", metadata !183, i32 1609, metadata !950, i1 false, i1 false, i32 0, i32 0, null, i32 256, i1 false, null, null, i32 0, metadata !195, i32 1609} ; [ DW_TAG_subprogram ]
!950 = metadata !{i32 786453, i32 0, metadata !"", i32 0, i32 0, i64 0, i64 0, i64 0, i32 0, null, metadata !951, i32 0, i32 0} ; [ DW_TAG_subroutine_type ]
!951 = metadata !{metadata !936, metadata !862, metadata !235}
!952 = metadata !{i32 786478, i32 0, metadata !841, metadata !"operator=", metadata !"operator=", metadata !"_ZN11ap_int_baseILi4ELb0ELb1EEaSEs", metadata !183, i32 1610, metadata !953, i1 false, i1 false, i32 0, i32 0, null, i32 256, i1 false, null, null, i32 0, metadata !195, i32 1610} ; [ DW_TAG_subprogram ]
!953 = metadata !{i32 786453, i32 0, metadata !"", i32 0, i32 0, i64 0, i64 0, i64 0, i32 0, null, metadata !954, i32 0, i32 0} ; [ DW_TAG_subroutine_type ]
!954 = metadata !{metadata !936, metadata !862, metadata !239}
!955 = metadata !{i32 786478, i32 0, metadata !841, metadata !"operator=", metadata !"operator=", metadata !"_ZN11ap_int_baseILi4ELb0ELb1EEaSEt", metadata !183, i32 1611, metadata !956, i1 false, i1 false, i32 0, i32 0, null, i32 256, i1 false, null, null, i32 0, metadata !195, i32 1611} ; [ DW_TAG_subprogram ]
!956 = metadata !{i32 786453, i32 0, metadata !"", i32 0, i32 0, i64 0, i64 0, i64 0, i32 0, null, metadata !957, i32 0, i32 0} ; [ DW_TAG_subroutine_type ]
!957 = metadata !{metadata !936, metadata !862, metadata !243}
!958 = metadata !{i32 786478, i32 0, metadata !841, metadata !"operator=", metadata !"operator=", metadata !"_ZN11ap_int_baseILi4ELb0ELb1EEaSEi", metadata !183, i32 1612, metadata !959, i1 false, i1 false, i32 0, i32 0, null, i32 256, i1 false, null, null, i32 0, metadata !195, i32 1612} ; [ DW_TAG_subprogram ]
!959 = metadata !{i32 786453, i32 0, metadata !"", i32 0, i32 0, i64 0, i64 0, i64 0, i32 0, null, metadata !960, i32 0, i32 0} ; [ DW_TAG_subroutine_type ]
!960 = metadata !{metadata !936, metadata !862, metadata !204}
!961 = metadata !{i32 786478, i32 0, metadata !841, metadata !"operator=", metadata !"operator=", metadata !"_ZN11ap_int_baseILi4ELb0ELb1EEaSEj", metadata !183, i32 1613, metadata !962, i1 false, i1 false, i32 0, i32 0, null, i32 256, i1 false, null, null, i32 0, metadata !195, i32 1613} ; [ DW_TAG_subprogram ]
!962 = metadata !{i32 786453, i32 0, metadata !"", i32 0, i32 0, i64 0, i64 0, i64 0, i32 0, null, metadata !963, i32 0, i32 0} ; [ DW_TAG_subroutine_type ]
!963 = metadata !{metadata !936, metadata !862, metadata !250}
!964 = metadata !{i32 786478, i32 0, metadata !841, metadata !"operator=", metadata !"operator=", metadata !"_ZN11ap_int_baseILi4ELb0ELb1EEaSEx", metadata !183, i32 1614, metadata !965, i1 false, i1 false, i32 0, i32 0, null, i32 256, i1 false, null, null, i32 0, metadata !195, i32 1614} ; [ DW_TAG_subprogram ]
!965 = metadata !{i32 786453, i32 0, metadata !"", i32 0, i32 0, i64 0, i64 0, i64 0, i32 0, null, metadata !966, i32 0, i32 0} ; [ DW_TAG_subroutine_type ]
!966 = metadata !{metadata !936, metadata !862, metadata !262}
!967 = metadata !{i32 786478, i32 0, metadata !841, metadata !"operator=", metadata !"operator=", metadata !"_ZN11ap_int_baseILi4ELb0ELb1EEaSEy", metadata !183, i32 1615, metadata !968, i1 false, i1 false, i32 0, i32 0, null, i32 256, i1 false, null, null, i32 0, metadata !195, i32 1615} ; [ DW_TAG_subprogram ]
!968 = metadata !{i32 786453, i32 0, metadata !"", i32 0, i32 0, i64 0, i64 0, i64 0, i32 0, null, metadata !969, i32 0, i32 0} ; [ DW_TAG_subroutine_type ]
!969 = metadata !{metadata !936, metadata !862, metadata !267}
!970 = metadata !{i32 786478, i32 0, metadata !841, metadata !"operator unsigned char", metadata !"operator unsigned char", metadata !"_ZNK11ap_int_baseILi4ELb0ELb1EEcvhEv", metadata !183, i32 1653, metadata !971, i1 false, i1 false, i32 0, i32 0, null, i32 256, i1 false, null, null, i32 0, metadata !195, i32 1653} ; [ DW_TAG_subprogram ]
!971 = metadata !{i32 786453, i32 0, metadata !"", i32 0, i32 0, i64 0, i64 0, i64 0, i32 0, null, metadata !972, i32 0, i32 0} ; [ DW_TAG_subroutine_type ]
!972 = metadata !{metadata !973, metadata !978}
!973 = metadata !{i32 786454, metadata !841, metadata !"RetType", metadata !183, i32 1402, i64 0, i64 0, i64 0, i32 0, metadata !974} ; [ DW_TAG_typedef ]
!974 = metadata !{i32 786454, metadata !975, metadata !"Type", metadata !183, i32 1370, i64 0, i64 0, i64 0, i32 0, metadata !235} ; [ DW_TAG_typedef ]
!975 = metadata !{i32 786434, null, metadata !"retval<1, false>", metadata !183, i32 1369, i64 8, i64 8, i32 0, i32 0, null, metadata !340, i32 0, null, metadata !976} ; [ DW_TAG_class_type ]
!976 = metadata !{metadata !977, metadata !858}
!977 = metadata !{i32 786480, null, metadata !"_AP_N", metadata !204, i64 1, null, i32 0, i32 0} ; [ DW_TAG_template_value_parameter ]
!978 = metadata !{i32 786447, i32 0, metadata !"", i32 0, i32 0, i64 32, i64 32, i64 0, i32 64, metadata !867} ; [ DW_TAG_pointer_type ]
!979 = metadata !{i32 786478, i32 0, metadata !841, metadata !"to_bool", metadata !"to_bool", metadata !"_ZNK11ap_int_baseILi4ELb0ELb1EE7to_boolEv", metadata !183, i32 1659, metadata !980, i1 false, i1 false, i32 0, i32 0, null, i32 256, i1 false, null, null, i32 0, metadata !195, i32 1659} ; [ DW_TAG_subprogram ]
!980 = metadata !{i32 786453, i32 0, metadata !"", i32 0, i32 0, i64 0, i64 0, i64 0, i32 0, null, metadata !981, i32 0, i32 0} ; [ DW_TAG_subroutine_type ]
!981 = metadata !{metadata !206, metadata !978}
!982 = metadata !{i32 786478, i32 0, metadata !841, metadata !"to_uchar", metadata !"to_uchar", metadata !"_ZNK11ap_int_baseILi4ELb0ELb1EE8to_ucharEv", metadata !183, i32 1660, metadata !983, i1 false, i1 false, i32 0, i32 0, null, i32 256, i1 false, null, null, i32 0, metadata !195, i32 1660} ; [ DW_TAG_subprogram ]
!983 = metadata !{i32 786453, i32 0, metadata !"", i32 0, i32 0, i64 0, i64 0, i64 0, i32 0, null, metadata !984, i32 0, i32 0} ; [ DW_TAG_subroutine_type ]
!984 = metadata !{metadata !235, metadata !978}
!985 = metadata !{i32 786478, i32 0, metadata !841, metadata !"to_char", metadata !"to_char", metadata !"_ZNK11ap_int_baseILi4ELb0ELb1EE7to_charEv", metadata !183, i32 1661, metadata !986, i1 false, i1 false, i32 0, i32 0, null, i32 256, i1 false, null, null, i32 0, metadata !195, i32 1661} ; [ DW_TAG_subprogram ]
!986 = metadata !{i32 786453, i32 0, metadata !"", i32 0, i32 0, i64 0, i64 0, i64 0, i32 0, null, metadata !987, i32 0, i32 0} ; [ DW_TAG_subroutine_type ]
!987 = metadata !{metadata !231, metadata !978}
!988 = metadata !{i32 786478, i32 0, metadata !841, metadata !"to_ushort", metadata !"to_ushort", metadata !"_ZNK11ap_int_baseILi4ELb0ELb1EE9to_ushortEv", metadata !183, i32 1662, metadata !989, i1 false, i1 false, i32 0, i32 0, null, i32 256, i1 false, null, null, i32 0, metadata !195, i32 1662} ; [ DW_TAG_subprogram ]
!989 = metadata !{i32 786453, i32 0, metadata !"", i32 0, i32 0, i64 0, i64 0, i64 0, i32 0, null, metadata !990, i32 0, i32 0} ; [ DW_TAG_subroutine_type ]
!990 = metadata !{metadata !243, metadata !978}
!991 = metadata !{i32 786478, i32 0, metadata !841, metadata !"to_short", metadata !"to_short", metadata !"_ZNK11ap_int_baseILi4ELb0ELb1EE8to_shortEv", metadata !183, i32 1663, metadata !992, i1 false, i1 false, i32 0, i32 0, null, i32 256, i1 false, null, null, i32 0, metadata !195, i32 1663} ; [ DW_TAG_subprogram ]
!992 = metadata !{i32 786453, i32 0, metadata !"", i32 0, i32 0, i64 0, i64 0, i64 0, i32 0, null, metadata !993, i32 0, i32 0} ; [ DW_TAG_subroutine_type ]
!993 = metadata !{metadata !239, metadata !978}
!994 = metadata !{i32 786478, i32 0, metadata !841, metadata !"to_int", metadata !"to_int", metadata !"_ZNK11ap_int_baseILi4ELb0ELb1EE6to_intEv", metadata !183, i32 1664, metadata !995, i1 false, i1 false, i32 0, i32 0, null, i32 256, i1 false, null, null, i32 0, metadata !195, i32 1664} ; [ DW_TAG_subprogram ]
!995 = metadata !{i32 786453, i32 0, metadata !"", i32 0, i32 0, i64 0, i64 0, i64 0, i32 0, null, metadata !996, i32 0, i32 0} ; [ DW_TAG_subroutine_type ]
!996 = metadata !{metadata !204, metadata !978}
!997 = metadata !{i32 786478, i32 0, metadata !841, metadata !"to_uint", metadata !"to_uint", metadata !"_ZNK11ap_int_baseILi4ELb0ELb1EE7to_uintEv", metadata !183, i32 1665, metadata !998, i1 false, i1 false, i32 0, i32 0, null, i32 256, i1 false, null, null, i32 0, metadata !195, i32 1665} ; [ DW_TAG_subprogram ]
!998 = metadata !{i32 786453, i32 0, metadata !"", i32 0, i32 0, i64 0, i64 0, i64 0, i32 0, null, metadata !999, i32 0, i32 0} ; [ DW_TAG_subroutine_type ]
!999 = metadata !{metadata !250, metadata !978}
!1000 = metadata !{i32 786478, i32 0, metadata !841, metadata !"to_long", metadata !"to_long", metadata !"_ZNK11ap_int_baseILi4ELb0ELb1EE7to_longEv", metadata !183, i32 1666, metadata !1001, i1 false, i1 false, i32 0, i32 0, null, i32 256, i1 false, null, null, i32 0, metadata !195, i32 1666} ; [ DW_TAG_subprogram ]
!1001 = metadata !{i32 786453, i32 0, metadata !"", i32 0, i32 0, i64 0, i64 0, i64 0, i32 0, null, metadata !1002, i32 0, i32 0} ; [ DW_TAG_subroutine_type ]
!1002 = metadata !{metadata !254, metadata !978}
!1003 = metadata !{i32 786478, i32 0, metadata !841, metadata !"to_ulong", metadata !"to_ulong", metadata !"_ZNK11ap_int_baseILi4ELb0ELb1EE8to_ulongEv", metadata !183, i32 1667, metadata !1004, i1 false, i1 false, i32 0, i32 0, null, i32 256, i1 false, null, null, i32 0, metadata !195, i32 1667} ; [ DW_TAG_subprogram ]
!1004 = metadata !{i32 786453, i32 0, metadata !"", i32 0, i32 0, i64 0, i64 0, i64 0, i32 0, null, metadata !1005, i32 0, i32 0} ; [ DW_TAG_subroutine_type ]
!1005 = metadata !{metadata !258, metadata !978}
!1006 = metadata !{i32 786478, i32 0, metadata !841, metadata !"to_int64", metadata !"to_int64", metadata !"_ZNK11ap_int_baseILi4ELb0ELb1EE8to_int64Ev", metadata !183, i32 1668, metadata !1007, i1 false, i1 false, i32 0, i32 0, null, i32 256, i1 false, null, null, i32 0, metadata !195, i32 1668} ; [ DW_TAG_subprogram ]
!1007 = metadata !{i32 786453, i32 0, metadata !"", i32 0, i32 0, i64 0, i64 0, i64 0, i32 0, null, metadata !1008, i32 0, i32 0} ; [ DW_TAG_subroutine_type ]
!1008 = metadata !{metadata !262, metadata !978}
!1009 = metadata !{i32 786478, i32 0, metadata !841, metadata !"to_uint64", metadata !"to_uint64", metadata !"_ZNK11ap_int_baseILi4ELb0ELb1EE9to_uint64Ev", metadata !183, i32 1669, metadata !1010, i1 false, i1 false, i32 0, i32 0, null, i32 256, i1 false, null, null, i32 0, metadata !195, i32 1669} ; [ DW_TAG_subprogram ]
!1010 = metadata !{i32 786453, i32 0, metadata !"", i32 0, i32 0, i64 0, i64 0, i64 0, i32 0, null, metadata !1011, i32 0, i32 0} ; [ DW_TAG_subroutine_type ]
!1011 = metadata !{metadata !267, metadata !978}
!1012 = metadata !{i32 786478, i32 0, metadata !841, metadata !"to_double", metadata !"to_double", metadata !"_ZNK11ap_int_baseILi4ELb0ELb1EE9to_doubleEv", metadata !183, i32 1670, metadata !1013, i1 false, i1 false, i32 0, i32 0, null, i32 256, i1 false, null, null, i32 0, metadata !195, i32 1670} ; [ DW_TAG_subprogram ]
!1013 = metadata !{i32 786453, i32 0, metadata !"", i32 0, i32 0, i64 0, i64 0, i64 0, i32 0, null, metadata !1014, i32 0, i32 0} ; [ DW_TAG_subroutine_type ]
!1014 = metadata !{metadata !276, metadata !978}
!1015 = metadata !{i32 786478, i32 0, metadata !841, metadata !"length", metadata !"length", metadata !"_ZNK11ap_int_baseILi4ELb0ELb1EE6lengthEv", metadata !183, i32 1684, metadata !995, i1 false, i1 false, i32 0, i32 0, null, i32 256, i1 false, null, null, i32 0, metadata !195, i32 1684} ; [ DW_TAG_subprogram ]
!1016 = metadata !{i32 786478, i32 0, metadata !841, metadata !"length", metadata !"length", metadata !"_ZNVK11ap_int_baseILi4ELb0ELb1EE6lengthEv", metadata !183, i32 1685, metadata !1017, i1 false, i1 false, i32 0, i32 0, null, i32 256, i1 false, null, null, i32 0, metadata !195, i32 1685} ; [ DW_TAG_subprogram ]
!1017 = metadata !{i32 786453, i32 0, metadata !"", i32 0, i32 0, i64 0, i64 0, i64 0, i32 0, null, metadata !1018, i32 0, i32 0} ; [ DW_TAG_subroutine_type ]
!1018 = metadata !{metadata !204, metadata !1019}
!1019 = metadata !{i32 786447, i32 0, metadata !"", i32 0, i32 0, i64 32, i64 32, i64 0, i32 64, metadata !875} ; [ DW_TAG_pointer_type ]
!1020 = metadata !{i32 786478, i32 0, metadata !841, metadata !"reverse", metadata !"reverse", metadata !"_ZN11ap_int_baseILi4ELb0ELb1EE7reverseEv", metadata !183, i32 1690, metadata !1021, i1 false, i1 false, i32 0, i32 0, null, i32 256, i1 false, null, null, i32 0, metadata !195, i32 1690} ; [ DW_TAG_subprogram ]
!1021 = metadata !{i32 786453, i32 0, metadata !"", i32 0, i32 0, i64 0, i64 0, i64 0, i32 0, null, metadata !1022, i32 0, i32 0} ; [ DW_TAG_subroutine_type ]
!1022 = metadata !{metadata !936, metadata !862}
!1023 = metadata !{i32 786478, i32 0, metadata !841, metadata !"iszero", metadata !"iszero", metadata !"_ZNK11ap_int_baseILi4ELb0ELb1EE6iszeroEv", metadata !183, i32 1696, metadata !980, i1 false, i1 false, i32 0, i32 0, null, i32 256, i1 false, null, null, i32 0, metadata !195, i32 1696} ; [ DW_TAG_subprogram ]
!1024 = metadata !{i32 786478, i32 0, metadata !841, metadata !"is_zero", metadata !"is_zero", metadata !"_ZNK11ap_int_baseILi4ELb0ELb1EE7is_zeroEv", metadata !183, i32 1701, metadata !980, i1 false, i1 false, i32 0, i32 0, null, i32 256, i1 false, null, null, i32 0, metadata !195, i32 1701} ; [ DW_TAG_subprogram ]
!1025 = metadata !{i32 786478, i32 0, metadata !841, metadata !"sign", metadata !"sign", metadata !"_ZNK11ap_int_baseILi4ELb0ELb1EE4signEv", metadata !183, i32 1706, metadata !980, i1 false, i1 false, i32 0, i32 0, null, i32 256, i1 false, null, null, i32 0, metadata !195, i32 1706} ; [ DW_TAG_subprogram ]
!1026 = metadata !{i32 786478, i32 0, metadata !841, metadata !"clear", metadata !"clear", metadata !"_ZN11ap_int_baseILi4ELb0ELb1EE5clearEi", metadata !183, i32 1714, metadata !893, i1 false, i1 false, i32 0, i32 0, null, i32 256, i1 false, null, null, i32 0, metadata !195, i32 1714} ; [ DW_TAG_subprogram ]
!1027 = metadata !{i32 786478, i32 0, metadata !841, metadata !"invert", metadata !"invert", metadata !"_ZN11ap_int_baseILi4ELb0ELb1EE6invertEi", metadata !183, i32 1720, metadata !893, i1 false, i1 false, i32 0, i32 0, null, i32 256, i1 false, null, null, i32 0, metadata !195, i32 1720} ; [ DW_TAG_subprogram ]
!1028 = metadata !{i32 786478, i32 0, metadata !841, metadata !"test", metadata !"test", metadata !"_ZNK11ap_int_baseILi4ELb0ELb1EE4testEi", metadata !183, i32 1728, metadata !1029, i1 false, i1 false, i32 0, i32 0, null, i32 256, i1 false, null, null, i32 0, metadata !195, i32 1728} ; [ DW_TAG_subprogram ]
!1029 = metadata !{i32 786453, i32 0, metadata !"", i32 0, i32 0, i64 0, i64 0, i64 0, i32 0, null, metadata !1030, i32 0, i32 0} ; [ DW_TAG_subroutine_type ]
!1030 = metadata !{metadata !206, metadata !978, metadata !204}
!1031 = metadata !{i32 786478, i32 0, metadata !841, metadata !"set", metadata !"set", metadata !"_ZN11ap_int_baseILi4ELb0ELb1EE3setEi", metadata !183, i32 1734, metadata !893, i1 false, i1 false, i32 0, i32 0, null, i32 256, i1 false, null, null, i32 0, metadata !195, i32 1734} ; [ DW_TAG_subprogram ]
!1032 = metadata !{i32 786478, i32 0, metadata !841, metadata !"set", metadata !"set", metadata !"_ZN11ap_int_baseILi4ELb0ELb1EE3setEib", metadata !183, i32 1740, metadata !1033, i1 false, i1 false, i32 0, i32 0, null, i32 256, i1 false, null, null, i32 0, metadata !195, i32 1740} ; [ DW_TAG_subprogram ]
!1033 = metadata !{i32 786453, i32 0, metadata !"", i32 0, i32 0, i64 0, i64 0, i64 0, i32 0, null, metadata !1034, i32 0, i32 0} ; [ DW_TAG_subroutine_type ]
!1034 = metadata !{null, metadata !862, metadata !204, metadata !206}
!1035 = metadata !{i32 786478, i32 0, metadata !841, metadata !"lrotate", metadata !"lrotate", metadata !"_ZN11ap_int_baseILi4ELb0ELb1EE7lrotateEi", metadata !183, i32 1747, metadata !893, i1 false, i1 false, i32 0, i32 0, null, i32 256, i1 false, null, null, i32 0, metadata !195, i32 1747} ; [ DW_TAG_subprogram ]
!1036 = metadata !{i32 786478, i32 0, metadata !841, metadata !"rrotate", metadata !"rrotate", metadata !"_ZN11ap_int_baseILi4ELb0ELb1EE7rrotateEi", metadata !183, i32 1756, metadata !893, i1 false, i1 false, i32 0, i32 0, null, i32 256, i1 false, null, null, i32 0, metadata !195, i32 1756} ; [ DW_TAG_subprogram ]
!1037 = metadata !{i32 786478, i32 0, metadata !841, metadata !"set_bit", metadata !"set_bit", metadata !"_ZN11ap_int_baseILi4ELb0ELb1EE7set_bitEib", metadata !183, i32 1764, metadata !1033, i1 false, i1 false, i32 0, i32 0, null, i32 256, i1 false, null, null, i32 0, metadata !195, i32 1764} ; [ DW_TAG_subprogram ]
!1038 = metadata !{i32 786478, i32 0, metadata !841, metadata !"get_bit", metadata !"get_bit", metadata !"_ZNK11ap_int_baseILi4ELb0ELb1EE7get_bitEi", metadata !183, i32 1769, metadata !1029, i1 false, i1 false, i32 0, i32 0, null, i32 256, i1 false, null, null, i32 0, metadata !195, i32 1769} ; [ DW_TAG_subprogram ]
!1039 = metadata !{i32 786478, i32 0, metadata !841, metadata !"b_not", metadata !"b_not", metadata !"_ZN11ap_int_baseILi4ELb0ELb1EE5b_notEv", metadata !183, i32 1774, metadata !860, i1 false, i1 false, i32 0, i32 0, null, i32 256, i1 false, null, null, i32 0, metadata !195, i32 1774} ; [ DW_TAG_subprogram ]
!1040 = metadata !{i32 786478, i32 0, metadata !841, metadata !"countLeadingZeros", metadata !"countLeadingZeros", metadata !"_ZN11ap_int_baseILi4ELb0ELb1EE17countLeadingZerosEv", metadata !183, i32 1781, metadata !1041, i1 false, i1 false, i32 0, i32 0, null, i32 256, i1 false, null, null, i32 0, metadata !195, i32 1781} ; [ DW_TAG_subprogram ]
!1041 = metadata !{i32 786453, i32 0, metadata !"", i32 0, i32 0, i64 0, i64 0, i64 0, i32 0, null, metadata !1042, i32 0, i32 0} ; [ DW_TAG_subroutine_type ]
!1042 = metadata !{metadata !204, metadata !862}
!1043 = metadata !{i32 786478, i32 0, metadata !841, metadata !"operator++", metadata !"operator++", metadata !"_ZN11ap_int_baseILi4ELb0ELb1EEppEv", metadata !183, i32 1838, metadata !1021, i1 false, i1 false, i32 0, i32 0, null, i32 256, i1 false, null, null, i32 0, metadata !195, i32 1838} ; [ DW_TAG_subprogram ]
!1044 = metadata !{i32 786478, i32 0, metadata !841, metadata !"operator--", metadata !"operator--", metadata !"_ZN11ap_int_baseILi4ELb0ELb1EEmmEv", metadata !183, i32 1842, metadata !1021, i1 false, i1 false, i32 0, i32 0, null, i32 256, i1 false, null, null, i32 0, metadata !195, i32 1842} ; [ DW_TAG_subprogram ]
!1045 = metadata !{i32 786478, i32 0, metadata !841, metadata !"operator++", metadata !"operator++", metadata !"_ZN11ap_int_baseILi4ELb0ELb1EEppEi", metadata !183, i32 1850, metadata !1046, i1 false, i1 false, i32 0, i32 0, null, i32 256, i1 false, null, null, i32 0, metadata !195, i32 1850} ; [ DW_TAG_subprogram ]
!1046 = metadata !{i32 786453, i32 0, metadata !"", i32 0, i32 0, i64 0, i64 0, i64 0, i32 0, null, metadata !1047, i32 0, i32 0} ; [ DW_TAG_subroutine_type ]
!1047 = metadata !{metadata !867, metadata !862, metadata !204}
!1048 = metadata !{i32 786478, i32 0, metadata !841, metadata !"operator--", metadata !"operator--", metadata !"_ZN11ap_int_baseILi4ELb0ELb1EEmmEi", metadata !183, i32 1855, metadata !1046, i1 false, i1 false, i32 0, i32 0, null, i32 256, i1 false, null, null, i32 0, metadata !195, i32 1855} ; [ DW_TAG_subprogram ]
!1049 = metadata !{i32 786478, i32 0, metadata !841, metadata !"operator+", metadata !"operator+", metadata !"_ZNK11ap_int_baseILi4ELb0ELb1EEpsEv", metadata !183, i32 1864, metadata !1050, i1 false, i1 false, i32 0, i32 0, null, i32 256, i1 false, null, null, i32 0, metadata !195, i32 1864} ; [ DW_TAG_subprogram ]
!1050 = metadata !{i32 786453, i32 0, metadata !"", i32 0, i32 0, i64 0, i64 0, i64 0, i32 0, null, metadata !1051, i32 0, i32 0} ; [ DW_TAG_subroutine_type ]
!1051 = metadata !{metadata !841, metadata !978}
!1052 = metadata !{i32 786478, i32 0, metadata !841, metadata !"operator!", metadata !"operator!", metadata !"_ZNK11ap_int_baseILi4ELb0ELb1EEntEv", metadata !183, i32 1870, metadata !980, i1 false, i1 false, i32 0, i32 0, null, i32 256, i1 false, null, null, i32 0, metadata !195, i32 1870} ; [ DW_TAG_subprogram ]
!1053 = metadata !{i32 786478, i32 0, metadata !841, metadata !"operator-", metadata !"operator-", metadata !"_ZNK11ap_int_baseILi4ELb0ELb1EEngEv", metadata !183, i32 1875, metadata !1054, i1 false, i1 false, i32 0, i32 0, null, i32 256, i1 false, null, null, i32 0, metadata !195, i32 1875} ; [ DW_TAG_subprogram ]
!1054 = metadata !{i32 786453, i32 0, metadata !"", i32 0, i32 0, i64 0, i64 0, i64 0, i32 0, null, metadata !1055, i32 0, i32 0} ; [ DW_TAG_subroutine_type ]
!1055 = metadata !{metadata !1056, metadata !978}
!1056 = metadata !{i32 786434, null, metadata !"ap_int_base<5, true, true>", metadata !183, i32 650, i32 0, i32 0, i32 0, i32 4, null, null, i32 0} ; [ DW_TAG_class_type ]
!1057 = metadata !{i32 786478, i32 0, metadata !841, metadata !"range", metadata !"range", metadata !"_ZN11ap_int_baseILi4ELb0ELb1EE5rangeEii", metadata !183, i32 2005, metadata !1058, i1 false, i1 false, i32 0, i32 0, null, i32 256, i1 false, null, null, i32 0, metadata !195, i32 2005} ; [ DW_TAG_subprogram ]
!1058 = metadata !{i32 786453, i32 0, metadata !"", i32 0, i32 0, i64 0, i64 0, i64 0, i32 0, null, metadata !1059, i32 0, i32 0} ; [ DW_TAG_subroutine_type ]
!1059 = metadata !{metadata !1060, metadata !862, metadata !204, metadata !204}
!1060 = metadata !{i32 786434, null, metadata !"ap_range_ref<4, false>", metadata !183, i32 923, i32 0, i32 0, i32 0, i32 4, null, null, i32 0} ; [ DW_TAG_class_type ]
!1061 = metadata !{i32 786478, i32 0, metadata !841, metadata !"operator()", metadata !"operator()", metadata !"_ZN11ap_int_baseILi4ELb0ELb1EEclEii", metadata !183, i32 2011, metadata !1058, i1 false, i1 false, i32 0, i32 0, null, i32 256, i1 false, null, null, i32 0, metadata !195, i32 2011} ; [ DW_TAG_subprogram ]
!1062 = metadata !{i32 786478, i32 0, metadata !841, metadata !"range", metadata !"range", metadata !"_ZNK11ap_int_baseILi4ELb0ELb1EE5rangeEii", metadata !183, i32 2017, metadata !1063, i1 false, i1 false, i32 0, i32 0, null, i32 256, i1 false, null, null, i32 0, metadata !195, i32 2017} ; [ DW_TAG_subprogram ]
!1063 = metadata !{i32 786453, i32 0, metadata !"", i32 0, i32 0, i64 0, i64 0, i64 0, i32 0, null, metadata !1064, i32 0, i32 0} ; [ DW_TAG_subroutine_type ]
!1064 = metadata !{metadata !1060, metadata !978, metadata !204, metadata !204}
!1065 = metadata !{i32 786478, i32 0, metadata !841, metadata !"operator()", metadata !"operator()", metadata !"_ZNK11ap_int_baseILi4ELb0ELb1EEclEii", metadata !183, i32 2023, metadata !1063, i1 false, i1 false, i32 0, i32 0, null, i32 256, i1 false, null, null, i32 0, metadata !195, i32 2023} ; [ DW_TAG_subprogram ]
!1066 = metadata !{i32 786478, i32 0, metadata !841, metadata !"operator[]", metadata !"operator[]", metadata !"_ZN11ap_int_baseILi4ELb0ELb1EEixEi", metadata !183, i32 2042, metadata !1067, i1 false, i1 false, i32 0, i32 0, null, i32 256, i1 false, null, null, i32 0, metadata !195, i32 2042} ; [ DW_TAG_subprogram ]
!1067 = metadata !{i32 786453, i32 0, metadata !"", i32 0, i32 0, i64 0, i64 0, i64 0, i32 0, null, metadata !1068, i32 0, i32 0} ; [ DW_TAG_subroutine_type ]
!1068 = metadata !{metadata !1069, metadata !862, metadata !204}
!1069 = metadata !{i32 786434, null, metadata !"ap_bit_ref<4, false>", metadata !183, i32 1193, i32 0, i32 0, i32 0, i32 4, null, null, i32 0} ; [ DW_TAG_class_type ]
!1070 = metadata !{i32 786478, i32 0, metadata !841, metadata !"operator[]", metadata !"operator[]", metadata !"_ZNK11ap_int_baseILi4ELb0ELb1EEixEi", metadata !183, i32 2056, metadata !1029, i1 false, i1 false, i32 0, i32 0, null, i32 256, i1 false, null, null, i32 0, metadata !195, i32 2056} ; [ DW_TAG_subprogram ]
!1071 = metadata !{i32 786478, i32 0, metadata !841, metadata !"bit", metadata !"bit", metadata !"_ZN11ap_int_baseILi4ELb0ELb1EE3bitEi", metadata !183, i32 2070, metadata !1067, i1 false, i1 false, i32 0, i32 0, null, i32 256, i1 false, null, null, i32 0, metadata !195, i32 2070} ; [ DW_TAG_subprogram ]
!1072 = metadata !{i32 786478, i32 0, metadata !841, metadata !"bit", metadata !"bit", metadata !"_ZNK11ap_int_baseILi4ELb0ELb1EE3bitEi", metadata !183, i32 2084, metadata !1029, i1 false, i1 false, i32 0, i32 0, null, i32 256, i1 false, null, null, i32 0, metadata !195, i32 2084} ; [ DW_TAG_subprogram ]
!1073 = metadata !{i32 786478, i32 0, metadata !841, metadata !"and_reduce", metadata !"and_reduce", metadata !"_ZN11ap_int_baseILi4ELb0ELb1EE10and_reduceEv", metadata !183, i32 2264, metadata !1074, i1 false, i1 false, i32 0, i32 0, null, i32 256, i1 false, null, null, i32 0, metadata !195, i32 2264} ; [ DW_TAG_subprogram ]
!1074 = metadata !{i32 786453, i32 0, metadata !"", i32 0, i32 0, i64 0, i64 0, i64 0, i32 0, null, metadata !1075, i32 0, i32 0} ; [ DW_TAG_subroutine_type ]
!1075 = metadata !{metadata !206, metadata !862}
!1076 = metadata !{i32 786478, i32 0, metadata !841, metadata !"nand_reduce", metadata !"nand_reduce", metadata !"_ZN11ap_int_baseILi4ELb0ELb1EE11nand_reduceEv", metadata !183, i32 2267, metadata !1074, i1 false, i1 false, i32 0, i32 0, null, i32 256, i1 false, null, null, i32 0, metadata !195, i32 2267} ; [ DW_TAG_subprogram ]
!1077 = metadata !{i32 786478, i32 0, metadata !841, metadata !"or_reduce", metadata !"or_reduce", metadata !"_ZN11ap_int_baseILi4ELb0ELb1EE9or_reduceEv", metadata !183, i32 2270, metadata !1074, i1 false, i1 false, i32 0, i32 0, null, i32 256, i1 false, null, null, i32 0, metadata !195, i32 2270} ; [ DW_TAG_subprogram ]
!1078 = metadata !{i32 786478, i32 0, metadata !841, metadata !"nor_reduce", metadata !"nor_reduce", metadata !"_ZN11ap_int_baseILi4ELb0ELb1EE10nor_reduceEv", metadata !183, i32 2273, metadata !1074, i1 false, i1 false, i32 0, i32 0, null, i32 256, i1 false, null, null, i32 0, metadata !195, i32 2273} ; [ DW_TAG_subprogram ]
!1079 = metadata !{i32 786478, i32 0, metadata !841, metadata !"xor_reduce", metadata !"xor_reduce", metadata !"_ZN11ap_int_baseILi4ELb0ELb1EE10xor_reduceEv", metadata !183, i32 2276, metadata !1074, i1 false, i1 false, i32 0, i32 0, null, i32 256, i1 false, null, null, i32 0, metadata !195, i32 2276} ; [ DW_TAG_subprogram ]
!1080 = metadata !{i32 786478, i32 0, metadata !841, metadata !"xnor_reduce", metadata !"xnor_reduce", metadata !"_ZN11ap_int_baseILi4ELb0ELb1EE11xnor_reduceEv", metadata !183, i32 2279, metadata !1074, i1 false, i1 false, i32 0, i32 0, null, i32 256, i1 false, null, null, i32 0, metadata !195, i32 2279} ; [ DW_TAG_subprogram ]
!1081 = metadata !{i32 786478, i32 0, metadata !841, metadata !"and_reduce", metadata !"and_reduce", metadata !"_ZNK11ap_int_baseILi4ELb0ELb1EE10and_reduceEv", metadata !183, i32 2283, metadata !980, i1 false, i1 false, i32 0, i32 0, null, i32 256, i1 false, null, null, i32 0, metadata !195, i32 2283} ; [ DW_TAG_subprogram ]
!1082 = metadata !{i32 786478, i32 0, metadata !841, metadata !"nand_reduce", metadata !"nand_reduce", metadata !"_ZNK11ap_int_baseILi4ELb0ELb1EE11nand_reduceEv", metadata !183, i32 2286, metadata !980, i1 false, i1 false, i32 0, i32 0, null, i32 256, i1 false, null, null, i32 0, metadata !195, i32 2286} ; [ DW_TAG_subprogram ]
!1083 = metadata !{i32 786478, i32 0, metadata !841, metadata !"or_reduce", metadata !"or_reduce", metadata !"_ZNK11ap_int_baseILi4ELb0ELb1EE9or_reduceEv", metadata !183, i32 2289, metadata !980, i1 false, i1 false, i32 0, i32 0, null, i32 256, i1 false, null, null, i32 0, metadata !195, i32 2289} ; [ DW_TAG_subprogram ]
!1084 = metadata !{i32 786478, i32 0, metadata !841, metadata !"nor_reduce", metadata !"nor_reduce", metadata !"_ZNK11ap_int_baseILi4ELb0ELb1EE10nor_reduceEv", metadata !183, i32 2292, metadata !980, i1 false, i1 false, i32 0, i32 0, null, i32 256, i1 false, null, null, i32 0, metadata !195, i32 2292} ; [ DW_TAG_subprogram ]
!1085 = metadata !{i32 786478, i32 0, metadata !841, metadata !"xor_reduce", metadata !"xor_reduce", metadata !"_ZNK11ap_int_baseILi4ELb0ELb1EE10xor_reduceEv", metadata !183, i32 2295, metadata !980, i1 false, i1 false, i32 0, i32 0, null, i32 256, i1 false, null, null, i32 0, metadata !195, i32 2295} ; [ DW_TAG_subprogram ]
!1086 = metadata !{i32 786478, i32 0, metadata !841, metadata !"xnor_reduce", metadata !"xnor_reduce", metadata !"_ZNK11ap_int_baseILi4ELb0ELb1EE11xnor_reduceEv", metadata !183, i32 2298, metadata !980, i1 false, i1 false, i32 0, i32 0, null, i32 256, i1 false, null, null, i32 0, metadata !195, i32 2298} ; [ DW_TAG_subprogram ]
!1087 = metadata !{i32 786478, i32 0, metadata !841, metadata !"to_string", metadata !"to_string", metadata !"_ZNK11ap_int_baseILi4ELb0ELb1EE9to_stringEPci8BaseModeb", metadata !183, i32 2305, metadata !1088, i1 false, i1 false, i32 0, i32 0, null, i32 256, i1 false, null, null, i32 0, metadata !195, i32 2305} ; [ DW_TAG_subprogram ]
!1088 = metadata !{i32 786453, i32 0, metadata !"", i32 0, i32 0, i64 0, i64 0, i64 0, i32 0, null, metadata !1089, i32 0, i32 0} ; [ DW_TAG_subroutine_type ]
!1089 = metadata !{null, metadata !978, metadata !699, metadata !204, metadata !700, metadata !206}
!1090 = metadata !{i32 786478, i32 0, metadata !841, metadata !"to_string", metadata !"to_string", metadata !"_ZNK11ap_int_baseILi4ELb0ELb1EE9to_stringE8BaseModeb", metadata !183, i32 2332, metadata !1091, i1 false, i1 false, i32 0, i32 0, null, i32 256, i1 false, null, null, i32 0, metadata !195, i32 2332} ; [ DW_TAG_subprogram ]
!1091 = metadata !{i32 786453, i32 0, metadata !"", i32 0, i32 0, i64 0, i64 0, i64 0, i32 0, null, metadata !1092, i32 0, i32 0} ; [ DW_TAG_subroutine_type ]
!1092 = metadata !{metadata !699, metadata !978, metadata !700, metadata !206}
!1093 = metadata !{i32 786478, i32 0, metadata !841, metadata !"to_string", metadata !"to_string", metadata !"_ZNK11ap_int_baseILi4ELb0ELb1EE9to_stringEab", metadata !183, i32 2336, metadata !1094, i1 false, i1 false, i32 0, i32 0, null, i32 256, i1 false, null, null, i32 0, metadata !195, i32 2336} ; [ DW_TAG_subprogram ]
!1094 = metadata !{i32 786453, i32 0, metadata !"", i32 0, i32 0, i64 0, i64 0, i64 0, i32 0, null, metadata !1095, i32 0, i32 0} ; [ DW_TAG_subroutine_type ]
!1095 = metadata !{metadata !699, metadata !978, metadata !231, metadata !206}
!1096 = metadata !{i32 786478, i32 0, metadata !841, metadata !"ap_int_base", metadata !"ap_int_base", metadata !"", metadata !183, i32 1397, metadata !864, i1 false, i1 false, i32 0, i32 0, null, i32 320, i1 false, null, null, i32 0, metadata !195, i32 1397} ; [ DW_TAG_subprogram ]
!1097 = metadata !{metadata !1098, metadata !858, metadata !713}
!1098 = metadata !{i32 786480, null, metadata !"_AP_W", metadata !204, i64 4, null, i32 0, i32 0} ; [ DW_TAG_template_value_parameter ]
!1099 = metadata !{i32 786478, i32 0, metadata !838, metadata !"ap_uint", metadata !"ap_uint", metadata !"", metadata !179, i32 183, metadata !1100, i1 false, i1 false, i32 0, i32 0, null, i32 256, i1 false, null, null, i32 0, metadata !195, i32 183} ; [ DW_TAG_subprogram ]
!1100 = metadata !{i32 786453, i32 0, metadata !"", i32 0, i32 0, i64 0, i64 0, i64 0, i32 0, null, metadata !1101, i32 0, i32 0} ; [ DW_TAG_subroutine_type ]
!1101 = metadata !{null, metadata !1102}
!1102 = metadata !{i32 786447, i32 0, metadata !"", i32 0, i32 0, i64 32, i64 32, i64 0, i32 64, metadata !838} ; [ DW_TAG_pointer_type ]
!1103 = metadata !{i32 786478, i32 0, metadata !838, metadata !"ap_uint<4>", metadata !"ap_uint<4>", metadata !"", metadata !179, i32 185, metadata !1104, i1 false, i1 false, i32 0, i32 0, null, i32 256, i1 false, null, metadata !1108, i32 0, metadata !195, i32 185} ; [ DW_TAG_subprogram ]
!1104 = metadata !{i32 786453, i32 0, metadata !"", i32 0, i32 0, i64 0, i64 0, i64 0, i32 0, null, metadata !1105, i32 0, i32 0} ; [ DW_TAG_subroutine_type ]
!1105 = metadata !{null, metadata !1102, metadata !1106}
!1106 = metadata !{i32 786448, null, null, null, i32 0, i64 0, i64 0, i64 0, i32 0, metadata !1107} ; [ DW_TAG_reference_type ]
!1107 = metadata !{i32 786470, null, metadata !"", null, i32 0, i64 0, i64 0, i64 0, i32 0, metadata !838} ; [ DW_TAG_const_type ]
!1108 = metadata !{metadata !869}
!1109 = metadata !{i32 786478, i32 0, metadata !838, metadata !"ap_uint<4>", metadata !"ap_uint<4>", metadata !"", metadata !179, i32 191, metadata !1110, i1 false, i1 false, i32 0, i32 0, null, i32 256, i1 false, null, metadata !1108, i32 0, metadata !195, i32 191} ; [ DW_TAG_subprogram ]
!1110 = metadata !{i32 786453, i32 0, metadata !"", i32 0, i32 0, i64 0, i64 0, i64 0, i32 0, null, metadata !1111, i32 0, i32 0} ; [ DW_TAG_subroutine_type ]
!1111 = metadata !{null, metadata !1102, metadata !1112}
!1112 = metadata !{i32 786448, null, null, null, i32 0, i64 0, i64 0, i64 0, i32 0, metadata !1113} ; [ DW_TAG_reference_type ]
!1113 = metadata !{i32 786470, null, metadata !"", null, i32 0, i64 0, i64 0, i64 0, i32 0, metadata !1114} ; [ DW_TAG_const_type ]
!1114 = metadata !{i32 786485, null, metadata !"", null, i32 0, i64 0, i64 0, i64 0, i32 0, metadata !838} ; [ DW_TAG_volatile_type ]
!1115 = metadata !{i32 786478, i32 0, metadata !838, metadata !"ap_uint<4, false>", metadata !"ap_uint<4, false>", metadata !"", metadata !179, i32 226, metadata !1116, i1 false, i1 false, i32 0, i32 0, null, i32 256, i1 false, null, metadata !868, i32 0, metadata !195, i32 226} ; [ DW_TAG_subprogram ]
!1116 = metadata !{i32 786453, i32 0, metadata !"", i32 0, i32 0, i64 0, i64 0, i64 0, i32 0, null, metadata !1117, i32 0, i32 0} ; [ DW_TAG_subroutine_type ]
!1117 = metadata !{null, metadata !1102, metadata !866}
!1118 = metadata !{i32 786478, i32 0, metadata !838, metadata !"ap_uint", metadata !"ap_uint", metadata !"", metadata !179, i32 245, metadata !1119, i1 false, i1 false, i32 0, i32 0, null, i32 256, i1 false, null, null, i32 0, metadata !195, i32 245} ; [ DW_TAG_subprogram ]
!1119 = metadata !{i32 786453, i32 0, metadata !"", i32 0, i32 0, i64 0, i64 0, i64 0, i32 0, null, metadata !1120, i32 0, i32 0} ; [ DW_TAG_subroutine_type ]
!1120 = metadata !{null, metadata !1102, metadata !206}
!1121 = metadata !{i32 786478, i32 0, metadata !838, metadata !"ap_uint", metadata !"ap_uint", metadata !"", metadata !179, i32 246, metadata !1122, i1 false, i1 false, i32 0, i32 0, null, i32 256, i1 false, null, null, i32 0, metadata !195, i32 246} ; [ DW_TAG_subprogram ]
!1122 = metadata !{i32 786453, i32 0, metadata !"", i32 0, i32 0, i64 0, i64 0, i64 0, i32 0, null, metadata !1123, i32 0, i32 0} ; [ DW_TAG_subroutine_type ]
!1123 = metadata !{null, metadata !1102, metadata !231}
!1124 = metadata !{i32 786478, i32 0, metadata !838, metadata !"ap_uint", metadata !"ap_uint", metadata !"", metadata !179, i32 247, metadata !1125, i1 false, i1 false, i32 0, i32 0, null, i32 256, i1 false, null, null, i32 0, metadata !195, i32 247} ; [ DW_TAG_subprogram ]
!1125 = metadata !{i32 786453, i32 0, metadata !"", i32 0, i32 0, i64 0, i64 0, i64 0, i32 0, null, metadata !1126, i32 0, i32 0} ; [ DW_TAG_subroutine_type ]
!1126 = metadata !{null, metadata !1102, metadata !235}
!1127 = metadata !{i32 786478, i32 0, metadata !838, metadata !"ap_uint", metadata !"ap_uint", metadata !"", metadata !179, i32 248, metadata !1128, i1 false, i1 false, i32 0, i32 0, null, i32 256, i1 false, null, null, i32 0, metadata !195, i32 248} ; [ DW_TAG_subprogram ]
!1128 = metadata !{i32 786453, i32 0, metadata !"", i32 0, i32 0, i64 0, i64 0, i64 0, i32 0, null, metadata !1129, i32 0, i32 0} ; [ DW_TAG_subroutine_type ]
!1129 = metadata !{null, metadata !1102, metadata !239}
!1130 = metadata !{i32 786478, i32 0, metadata !838, metadata !"ap_uint", metadata !"ap_uint", metadata !"", metadata !179, i32 249, metadata !1131, i1 false, i1 false, i32 0, i32 0, null, i32 256, i1 false, null, null, i32 0, metadata !195, i32 249} ; [ DW_TAG_subprogram ]
!1131 = metadata !{i32 786453, i32 0, metadata !"", i32 0, i32 0, i64 0, i64 0, i64 0, i32 0, null, metadata !1132, i32 0, i32 0} ; [ DW_TAG_subroutine_type ]
!1132 = metadata !{null, metadata !1102, metadata !243}
!1133 = metadata !{i32 786478, i32 0, metadata !838, metadata !"ap_uint", metadata !"ap_uint", metadata !"", metadata !179, i32 250, metadata !1134, i1 false, i1 false, i32 0, i32 0, null, i32 256, i1 false, null, null, i32 0, metadata !195, i32 250} ; [ DW_TAG_subprogram ]
!1134 = metadata !{i32 786453, i32 0, metadata !"", i32 0, i32 0, i64 0, i64 0, i64 0, i32 0, null, metadata !1135, i32 0, i32 0} ; [ DW_TAG_subroutine_type ]
!1135 = metadata !{null, metadata !1102, metadata !204}
!1136 = metadata !{i32 786478, i32 0, metadata !838, metadata !"ap_uint", metadata !"ap_uint", metadata !"", metadata !179, i32 251, metadata !1137, i1 false, i1 false, i32 0, i32 0, null, i32 256, i1 false, null, null, i32 0, metadata !195, i32 251} ; [ DW_TAG_subprogram ]
!1137 = metadata !{i32 786453, i32 0, metadata !"", i32 0, i32 0, i64 0, i64 0, i64 0, i32 0, null, metadata !1138, i32 0, i32 0} ; [ DW_TAG_subroutine_type ]
!1138 = metadata !{null, metadata !1102, metadata !250}
!1139 = metadata !{i32 786478, i32 0, metadata !838, metadata !"ap_uint", metadata !"ap_uint", metadata !"", metadata !179, i32 252, metadata !1140, i1 false, i1 false, i32 0, i32 0, null, i32 256, i1 false, null, null, i32 0, metadata !195, i32 252} ; [ DW_TAG_subprogram ]
!1140 = metadata !{i32 786453, i32 0, metadata !"", i32 0, i32 0, i64 0, i64 0, i64 0, i32 0, null, metadata !1141, i32 0, i32 0} ; [ DW_TAG_subroutine_type ]
!1141 = metadata !{null, metadata !1102, metadata !254}
!1142 = metadata !{i32 786478, i32 0, metadata !838, metadata !"ap_uint", metadata !"ap_uint", metadata !"", metadata !179, i32 253, metadata !1143, i1 false, i1 false, i32 0, i32 0, null, i32 256, i1 false, null, null, i32 0, metadata !195, i32 253} ; [ DW_TAG_subprogram ]
!1143 = metadata !{i32 786453, i32 0, metadata !"", i32 0, i32 0, i64 0, i64 0, i64 0, i32 0, null, metadata !1144, i32 0, i32 0} ; [ DW_TAG_subroutine_type ]
!1144 = metadata !{null, metadata !1102, metadata !258}
!1145 = metadata !{i32 786478, i32 0, metadata !838, metadata !"ap_uint", metadata !"ap_uint", metadata !"", metadata !179, i32 254, metadata !1146, i1 false, i1 false, i32 0, i32 0, null, i32 256, i1 false, null, null, i32 0, metadata !195, i32 254} ; [ DW_TAG_subprogram ]
!1146 = metadata !{i32 786453, i32 0, metadata !"", i32 0, i32 0, i64 0, i64 0, i64 0, i32 0, null, metadata !1147, i32 0, i32 0} ; [ DW_TAG_subroutine_type ]
!1147 = metadata !{null, metadata !1102, metadata !268}
!1148 = metadata !{i32 786478, i32 0, metadata !838, metadata !"ap_uint", metadata !"ap_uint", metadata !"", metadata !179, i32 255, metadata !1149, i1 false, i1 false, i32 0, i32 0, null, i32 256, i1 false, null, null, i32 0, metadata !195, i32 255} ; [ DW_TAG_subprogram ]
!1149 = metadata !{i32 786453, i32 0, metadata !"", i32 0, i32 0, i64 0, i64 0, i64 0, i32 0, null, metadata !1150, i32 0, i32 0} ; [ DW_TAG_subroutine_type ]
!1150 = metadata !{null, metadata !1102, metadata !263}
!1151 = metadata !{i32 786478, i32 0, metadata !838, metadata !"ap_uint", metadata !"ap_uint", metadata !"", metadata !179, i32 256, metadata !1152, i1 false, i1 false, i32 0, i32 0, null, i32 256, i1 false, null, null, i32 0, metadata !195, i32 256} ; [ DW_TAG_subprogram ]
!1152 = metadata !{i32 786453, i32 0, metadata !"", i32 0, i32 0, i64 0, i64 0, i64 0, i32 0, null, metadata !1153, i32 0, i32 0} ; [ DW_TAG_subroutine_type ]
!1153 = metadata !{null, metadata !1102, metadata !272}
!1154 = metadata !{i32 786478, i32 0, metadata !838, metadata !"ap_uint", metadata !"ap_uint", metadata !"", metadata !179, i32 257, metadata !1155, i1 false, i1 false, i32 0, i32 0, null, i32 256, i1 false, null, null, i32 0, metadata !195, i32 257} ; [ DW_TAG_subprogram ]
!1155 = metadata !{i32 786453, i32 0, metadata !"", i32 0, i32 0, i64 0, i64 0, i64 0, i32 0, null, metadata !1156, i32 0, i32 0} ; [ DW_TAG_subroutine_type ]
!1156 = metadata !{null, metadata !1102, metadata !276}
!1157 = metadata !{i32 786478, i32 0, metadata !838, metadata !"ap_uint", metadata !"ap_uint", metadata !"", metadata !179, i32 259, metadata !1158, i1 false, i1 false, i32 0, i32 0, null, i32 256, i1 false, null, null, i32 0, metadata !195, i32 259} ; [ DW_TAG_subprogram ]
!1158 = metadata !{i32 786453, i32 0, metadata !"", i32 0, i32 0, i64 0, i64 0, i64 0, i32 0, null, metadata !1159, i32 0, i32 0} ; [ DW_TAG_subroutine_type ]
!1159 = metadata !{null, metadata !1102, metadata !280}
!1160 = metadata !{i32 786478, i32 0, metadata !838, metadata !"ap_uint", metadata !"ap_uint", metadata !"", metadata !179, i32 260, metadata !1161, i1 false, i1 false, i32 0, i32 0, null, i32 256, i1 false, null, null, i32 0, metadata !195, i32 260} ; [ DW_TAG_subprogram ]
!1161 = metadata !{i32 786453, i32 0, metadata !"", i32 0, i32 0, i64 0, i64 0, i64 0, i32 0, null, metadata !1162, i32 0, i32 0} ; [ DW_TAG_subroutine_type ]
!1162 = metadata !{null, metadata !1102, metadata !280, metadata !231}
!1163 = metadata !{i32 786478, i32 0, metadata !838, metadata !"operator=", metadata !"operator=", metadata !"_ZNV7ap_uintILi4EEaSERKS0_", metadata !179, i32 263, metadata !1164, i1 false, i1 false, i32 0, i32 0, null, i32 256, i1 false, null, null, i32 0, metadata !195, i32 263} ; [ DW_TAG_subprogram ]
!1164 = metadata !{i32 786453, i32 0, metadata !"", i32 0, i32 0, i64 0, i64 0, i64 0, i32 0, null, metadata !1165, i32 0, i32 0} ; [ DW_TAG_subroutine_type ]
!1165 = metadata !{null, metadata !1166, metadata !1106}
!1166 = metadata !{i32 786447, i32 0, metadata !"", i32 0, i32 0, i64 32, i64 32, i64 0, i32 64, metadata !1114} ; [ DW_TAG_pointer_type ]
!1167 = metadata !{i32 786478, i32 0, metadata !838, metadata !"operator=", metadata !"operator=", metadata !"_ZNV7ap_uintILi4EEaSERVKS0_", metadata !179, i32 267, metadata !1168, i1 false, i1 false, i32 0, i32 0, null, i32 256, i1 false, null, null, i32 0, metadata !195, i32 267} ; [ DW_TAG_subprogram ]
!1168 = metadata !{i32 786453, i32 0, metadata !"", i32 0, i32 0, i64 0, i64 0, i64 0, i32 0, null, metadata !1169, i32 0, i32 0} ; [ DW_TAG_subroutine_type ]
!1169 = metadata !{null, metadata !1166, metadata !1112}
!1170 = metadata !{i32 786478, i32 0, metadata !838, metadata !"operator=", metadata !"operator=", metadata !"_ZN7ap_uintILi4EEaSERVKS0_", metadata !179, i32 271, metadata !1171, i1 false, i1 false, i32 0, i32 0, null, i32 256, i1 false, null, null, i32 0, metadata !195, i32 271} ; [ DW_TAG_subprogram ]
!1171 = metadata !{i32 786453, i32 0, metadata !"", i32 0, i32 0, i64 0, i64 0, i64 0, i32 0, null, metadata !1172, i32 0, i32 0} ; [ DW_TAG_subroutine_type ]
!1172 = metadata !{metadata !1173, metadata !1102, metadata !1112}
!1173 = metadata !{i32 786448, null, null, null, i32 0, i64 0, i64 0, i64 0, i32 0, metadata !838} ; [ DW_TAG_reference_type ]
!1174 = metadata !{i32 786478, i32 0, metadata !838, metadata !"operator=", metadata !"operator=", metadata !"_ZN7ap_uintILi4EEaSERKS0_", metadata !179, i32 276, metadata !1175, i1 false, i1 false, i32 0, i32 0, null, i32 256, i1 false, null, null, i32 0, metadata !195, i32 276} ; [ DW_TAG_subprogram ]
!1175 = metadata !{i32 786453, i32 0, metadata !"", i32 0, i32 0, i64 0, i64 0, i64 0, i32 0, null, metadata !1176, i32 0, i32 0} ; [ DW_TAG_subroutine_type ]
!1176 = metadata !{metadata !1173, metadata !1102, metadata !1106}
!1177 = metadata !{i32 786478, i32 0, metadata !838, metadata !"ap_uint", metadata !"ap_uint", metadata !"", metadata !179, i32 180, metadata !1104, i1 false, i1 false, i32 0, i32 0, null, i32 320, i1 false, null, null, i32 0, metadata !195, i32 180} ; [ DW_TAG_subprogram ]
!1178 = metadata !{i32 786478, i32 0, metadata !838, metadata !"~ap_uint", metadata !"~ap_uint", metadata !"", metadata !179, i32 180, metadata !1100, i1 false, i1 false, i32 0, i32 0, null, i32 320, i1 false, null, null, i32 0, metadata !195, i32 180} ; [ DW_TAG_subprogram ]
!1179 = metadata !{metadata !1098}
!1180 = metadata !{i32 786445, metadata !174, metadata !"strb", metadata !175, i32 92, i64 8, i64 8, i64 40, i32 0, metadata !838} ; [ DW_TAG_member ]
!1181 = metadata !{i32 786445, metadata !174, metadata !"user", metadata !175, i32 93, i64 8, i64 8, i64 48, i32 0, metadata !1182} ; [ DW_TAG_member ]
!1182 = metadata !{i32 786434, null, metadata !"ap_uint<2>", metadata !179, i32 180, i64 8, i64 8, i32 0, i32 0, null, metadata !1183, i32 0, null, metadata !1552} ; [ DW_TAG_class_type ]
!1183 = metadata !{metadata !1184, metadata !1472, metadata !1476, metadata !1482, metadata !1488, metadata !1491, metadata !1494, metadata !1497, metadata !1500, metadata !1503, metadata !1506, metadata !1509, metadata !1512, metadata !1515, metadata !1518, metadata !1521, metadata !1524, metadata !1527, metadata !1530, metadata !1533, metadata !1536, metadata !1540, metadata !1543, metadata !1547, metadata !1550, metadata !1551}
!1184 = metadata !{i32 786460, metadata !1182, null, metadata !179, i32 0, i64 0, i64 0, i64 0, i32 0, metadata !1185} ; [ DW_TAG_inheritance ]
!1185 = metadata !{i32 786434, null, metadata !"ap_int_base<2, false, true>", metadata !183, i32 1397, i64 8, i64 8, i32 0, i32 0, null, metadata !1186, i32 0, null, metadata !1471} ; [ DW_TAG_class_type ]
!1186 = metadata !{metadata !1187, metadata !1203, metadata !1207, metadata !1214, metadata !1220, metadata !1223, metadata !1226, metadata !1229, metadata !1232, metadata !1235, metadata !1238, metadata !1241, metadata !1244, metadata !1247, metadata !1250, metadata !1253, metadata !1256, metadata !1259, metadata !1262, metadata !1265, metadata !1269, metadata !1272, metadata !1275, metadata !1276, metadata !1280, metadata !1283, metadata !1286, metadata !1289, metadata !1292, metadata !1295, metadata !1298, metadata !1301, metadata !1304, metadata !1307, metadata !1310, metadata !1313, metadata !1318, metadata !1321, metadata !1324, metadata !1327, metadata !1330, metadata !1333, metadata !1336, metadata !1339, metadata !1342, metadata !1345, metadata !1348, metadata !1351, metadata !1354, metadata !1355, metadata !1359, metadata !1362, metadata !1363, metadata !1364, metadata !1365, metadata !1366, metadata !1367, metadata !1370, metadata !1371, metadata !1374, metadata !1375, metadata !1376, metadata !1377, metadata !1378, metadata !1379, metadata !1382, metadata !1383, metadata !1384, metadata !1387, metadata !1388, metadata !1391, metadata !1392, metadata !1396, metadata !1400, metadata !1401, metadata !1404, metadata !1405, metadata !1444, metadata !1445, metadata !1446, metadata !1447, metadata !1450, metadata !1451, metadata !1452, metadata !1453, metadata !1454, metadata !1455, metadata !1456, metadata !1457, metadata !1458, metadata !1459, metadata !1460, metadata !1461, metadata !1464, metadata !1467, metadata !1470}
